
kernel:     file format elf32-i386


Disassembly of section .text:

00100000 <brelse>:
}

// Release the buffer buf.
void
brelse(struct buf *b)
{
  100000:	55                   	push   %ebp
  100001:	89 e5                	mov    %esp,%ebp
  100003:	53                   	push   %ebx
  100004:	83 ec 14             	sub    $0x14,%esp
  100007:	8b 5d 08             	mov    0x8(%ebp),%ebx
  if((b->flags & B_BUSY) == 0)
  10000a:	f6 03 01             	testb  $0x1,(%ebx)
  10000d:	74 58                	je     100067 <brelse+0x67>
    panic("brelse");

  acquire(&buf_table_lock);
  10000f:	c7 04 24 00 a0 10 00 	movl   $0x10a000,(%esp)
  100016:	e8 15 47 00 00       	call   104730 <acquire>

  b->next->prev = b->prev;
  10001b:	8b 43 10             	mov    0x10(%ebx),%eax
  10001e:	8b 53 0c             	mov    0xc(%ebx),%edx
  b->next = bufhead.next;
  b->prev = &bufhead;
  bufhead.next->prev = b;
  bufhead.next = b;

  b->flags &= ~B_BUSY;
  100021:	83 23 fe             	andl   $0xfffffffe,(%ebx)
  if((b->flags & B_BUSY) == 0)
    panic("brelse");

  acquire(&buf_table_lock);

  b->next->prev = b->prev;
  100024:	89 50 0c             	mov    %edx,0xc(%eax)
  b->prev->next = b->next;
  100027:	8b 53 0c             	mov    0xc(%ebx),%edx
  b->next = bufhead.next;
  b->prev = &bufhead;
  10002a:	c7 43 0c e0 88 10 00 	movl   $0x1088e0,0xc(%ebx)
    panic("brelse");

  acquire(&buf_table_lock);

  b->next->prev = b->prev;
  b->prev->next = b->next;
  100031:	89 42 10             	mov    %eax,0x10(%edx)
  b->next = bufhead.next;
  100034:	a1 f0 88 10 00       	mov    0x1088f0,%eax
  100039:	89 43 10             	mov    %eax,0x10(%ebx)
  b->prev = &bufhead;
  bufhead.next->prev = b;
  10003c:	a1 f0 88 10 00       	mov    0x1088f0,%eax
  bufhead.next = b;
  100041:	89 1d f0 88 10 00    	mov    %ebx,0x1088f0

  b->next->prev = b->prev;
  b->prev->next = b->next;
  b->next = bufhead.next;
  b->prev = &bufhead;
  bufhead.next->prev = b;
  100047:	89 58 0c             	mov    %ebx,0xc(%eax)
  bufhead.next = b;

  b->flags &= ~B_BUSY;
  wakeup(buf);
  10004a:	c7 04 24 00 8b 10 00 	movl   $0x108b00,(%esp)
  100051:	e8 9a 35 00 00       	call   1035f0 <wakeup>

  release(&buf_table_lock);
  100056:	c7 45 08 00 a0 10 00 	movl   $0x10a000,0x8(%ebp)
}
  10005d:	83 c4 14             	add    $0x14,%esp
  100060:	5b                   	pop    %ebx
  100061:	5d                   	pop    %ebp
  bufhead.next = b;

  b->flags &= ~B_BUSY;
  wakeup(buf);

  release(&buf_table_lock);
  100062:	e9 89 46 00 00       	jmp    1046f0 <release>
// Release the buffer buf.
void
brelse(struct buf *b)
{
  if((b->flags & B_BUSY) == 0)
    panic("brelse");
  100067:	c7 04 24 e0 68 10 00 	movl   $0x1068e0,(%esp)
  10006e:	e8 ed 08 00 00       	call   100960 <panic>
  100073:	8d b6 00 00 00 00    	lea    0x0(%esi),%esi
  100079:	8d bc 27 00 00 00 00 	lea    0x0(%edi,%eiz,1),%edi

00100080 <bcheck>:
    bufhead.next = b;
  }
}

int
bcheck(uint dev, uint sector){
  100080:	55                   	push   %ebp
  100081:	89 e5                	mov    %esp,%ebp
  100083:	56                   	push   %esi
  100084:	53                   	push   %ebx
  100085:	83 ec 10             	sub    $0x10,%esp
  100088:	8b 5d 08             	mov    0x8(%ebp),%ebx
  10008b:	8b 75 0c             	mov    0xc(%ebp),%esi
	 struct buf *b;

	 acquire(&buf_table_lock);
  10008e:	c7 04 24 00 a0 10 00 	movl   $0x10a000,(%esp)
  100095:	e8 96 46 00 00       	call   104730 <acquire>

	  // Try for cached block.
	  for(b = bufhead.next; b != &bufhead; b = b->next){
  10009a:	a1 f0 88 10 00       	mov    0x1088f0,%eax
  10009f:	3d e0 88 10 00       	cmp    $0x1088e0,%eax
  1000a4:	75 0c                	jne    1000b2 <bcheck+0x32>
  1000a6:	eb 38                	jmp    1000e0 <bcheck+0x60>
  1000a8:	8b 40 10             	mov    0x10(%eax),%eax
  1000ab:	3d e0 88 10 00       	cmp    $0x1088e0,%eax
  1000b0:	74 2e                	je     1000e0 <bcheck+0x60>
	    if((b->flags & (B_BUSY|B_VALID)) &&
  1000b2:	f6 00 03             	testb  $0x3,(%eax)
  1000b5:	74 f1                	je     1000a8 <bcheck+0x28>
	       b->dev == dev && b->sector == sector){
  1000b7:	39 58 04             	cmp    %ebx,0x4(%eax)
  1000ba:	75 ec                	jne    1000a8 <bcheck+0x28>
  1000bc:	39 70 08             	cmp    %esi,0x8(%eax)
  1000bf:	90                   	nop
  1000c0:	75 e6                	jne    1000a8 <bcheck+0x28>
	      release(&buf_table_lock);
  1000c2:	c7 04 24 00 a0 10 00 	movl   $0x10a000,(%esp)
  1000c9:	e8 22 46 00 00       	call   1046f0 <release>
	    }
	  }
      release(&buf_table_lock);
	  return 0;

}
  1000ce:	83 c4 10             	add    $0x10,%esp

	  // Try for cached block.
	  for(b = bufhead.next; b != &bufhead; b = b->next){
	    if((b->flags & (B_BUSY|B_VALID)) &&
	       b->dev == dev && b->sector == sector){
	      release(&buf_table_lock);
  1000d1:	b8 01 00 00 00       	mov    $0x1,%eax
	    }
	  }
      release(&buf_table_lock);
	  return 0;

}
  1000d6:	5b                   	pop    %ebx
  1000d7:	5e                   	pop    %esi
  1000d8:	5d                   	pop    %ebp
  1000d9:	c3                   	ret    
  1000da:	8d b6 00 00 00 00    	lea    0x0(%esi),%esi
	       b->dev == dev && b->sector == sector){
	      release(&buf_table_lock);
	      return 1;
	    }
	  }
      release(&buf_table_lock);
  1000e0:	c7 04 24 00 a0 10 00 	movl   $0x10a000,(%esp)
  1000e7:	e8 04 46 00 00       	call   1046f0 <release>
	  return 0;

}
  1000ec:	83 c4 10             	add    $0x10,%esp
	       b->dev == dev && b->sector == sector){
	      release(&buf_table_lock);
	      return 1;
	    }
	  }
      release(&buf_table_lock);
  1000ef:	31 c0                	xor    %eax,%eax
	  return 0;

}
  1000f1:	5b                   	pop    %ebx
  1000f2:	5e                   	pop    %esi
  1000f3:	5d                   	pop    %ebp
  1000f4:	c3                   	ret    
  1000f5:	8d 74 26 00          	lea    0x0(%esi,%eiz,1),%esi
  1000f9:	8d bc 27 00 00 00 00 	lea    0x0(%edi,%eiz,1),%edi

00100100 <bwrite>:
}

// Write buf's contents to disk.  Must be locked.
void
bwrite(struct buf *b)
{
  100100:	55                   	push   %ebp
  100101:	89 e5                	mov    %esp,%ebp
  100103:	83 ec 18             	sub    $0x18,%esp
  100106:	8b 45 08             	mov    0x8(%ebp),%eax
  if((b->flags & B_BUSY) == 0)
  100109:	8b 10                	mov    (%eax),%edx
  10010b:	f6 c2 01             	test   $0x1,%dl
  10010e:	74 0e                	je     10011e <bwrite+0x1e>
    panic("bwrite");
  b->flags |= B_DIRTY;
  100110:	83 ca 04             	or     $0x4,%edx
  100113:	89 10                	mov    %edx,(%eax)
  ide_rw(b);
  100115:	89 45 08             	mov    %eax,0x8(%ebp)
}
  100118:	c9                   	leave  
bwrite(struct buf *b)
{
  if((b->flags & B_BUSY) == 0)
    panic("bwrite");
  b->flags |= B_DIRTY;
  ide_rw(b);
  100119:	e9 d2 21 00 00       	jmp    1022f0 <ide_rw>
// Write buf's contents to disk.  Must be locked.
void
bwrite(struct buf *b)
{
  if((b->flags & B_BUSY) == 0)
    panic("bwrite");
  10011e:	c7 04 24 e7 68 10 00 	movl   $0x1068e7,(%esp)
  100125:	e8 36 08 00 00       	call   100960 <panic>
  10012a:	8d b6 00 00 00 00    	lea    0x0(%esi),%esi

00100130 <bread>:
}

// Return a B_BUSY buf with the contents of the indicated disk sector.
struct buf*
bread(uint dev, uint sector)
{
  100130:	55                   	push   %ebp
  100131:	89 e5                	mov    %esp,%ebp
  100133:	57                   	push   %edi
  100134:	56                   	push   %esi
  100135:	53                   	push   %ebx
  100136:	83 ec 1c             	sub    $0x1c,%esp
  100139:	8b 75 08             	mov    0x8(%ebp),%esi
  10013c:	8b 7d 0c             	mov    0xc(%ebp),%edi
static struct buf*
bget(uint dev, uint sector)
{
  struct buf *b;

  acquire(&buf_table_lock);
  10013f:	c7 04 24 00 a0 10 00 	movl   $0x10a000,(%esp)
  100146:	e8 e5 45 00 00       	call   104730 <acquire>

 loop:
  // Try for cached block.
  for(b = bufhead.next; b != &bufhead; b = b->next){
  10014b:	8b 1d f0 88 10 00    	mov    0x1088f0,%ebx
  100151:	81 fb e0 88 10 00    	cmp    $0x1088e0,%ebx
  100157:	75 12                	jne    10016b <bread+0x3b>
  100159:	eb 3d                	jmp    100198 <bread+0x68>
  10015b:	90                   	nop
  10015c:	8d 74 26 00          	lea    0x0(%esi,%eiz,1),%esi
  100160:	8b 5b 10             	mov    0x10(%ebx),%ebx
  100163:	81 fb e0 88 10 00    	cmp    $0x1088e0,%ebx
  100169:	74 2d                	je     100198 <bread+0x68>
    if((b->flags & (B_BUSY|B_VALID)) &&
  10016b:	8b 03                	mov    (%ebx),%eax
  10016d:	a8 03                	test   $0x3,%al
  10016f:	74 ef                	je     100160 <bread+0x30>
  100171:	3b 73 04             	cmp    0x4(%ebx),%esi
  100174:	75 ea                	jne    100160 <bread+0x30>
  100176:	3b 7b 08             	cmp    0x8(%ebx),%edi
  100179:	75 e5                	jne    100160 <bread+0x30>
       b->dev == dev && b->sector == sector){
      if(b->flags & B_BUSY){
  10017b:	a8 01                	test   $0x1,%al
  10017d:	8d 76 00             	lea    0x0(%esi),%esi
  100180:	74 71                	je     1001f3 <bread+0xc3>
        sleep(buf, &buf_table_lock);
  100182:	c7 44 24 04 00 a0 10 	movl   $0x10a000,0x4(%esp)
  100189:	00 
  10018a:	c7 04 24 00 8b 10 00 	movl   $0x108b00,(%esp)
  100191:	e8 0a 38 00 00       	call   1039a0 <sleep>
  100196:	eb b3                	jmp    10014b <bread+0x1b>
      return b;
    }
  }

  // Allocate fresh block.
  for(b = bufhead.prev; b != &bufhead; b = b->prev){
  100198:	8b 1d ec 88 10 00    	mov    0x1088ec,%ebx
  10019e:	81 fb e0 88 10 00    	cmp    $0x1088e0,%ebx
  1001a4:	75 0d                	jne    1001b3 <bread+0x83>
  1001a6:	eb 3f                	jmp    1001e7 <bread+0xb7>
  1001a8:	8b 5b 0c             	mov    0xc(%ebx),%ebx
  1001ab:	81 fb e0 88 10 00    	cmp    $0x1088e0,%ebx
  1001b1:	74 34                	je     1001e7 <bread+0xb7>
    if((b->flags & B_BUSY) == 0){
  1001b3:	f6 03 01             	testb  $0x1,(%ebx)
  1001b6:	75 f0                	jne    1001a8 <bread+0x78>
      b->flags = B_BUSY;
  1001b8:	c7 03 01 00 00 00    	movl   $0x1,(%ebx)
      b->dev = dev;
  1001be:	89 73 04             	mov    %esi,0x4(%ebx)
      b->sector = sector;
  1001c1:	89 7b 08             	mov    %edi,0x8(%ebx)
      release(&buf_table_lock);
  1001c4:	c7 04 24 00 a0 10 00 	movl   $0x10a000,(%esp)
  1001cb:	e8 20 45 00 00       	call   1046f0 <release>
bread(uint dev, uint sector)
{
  struct buf *b;

  b = bget(dev, sector);
  if(!(b->flags & B_VALID))
  1001d0:	f6 03 02             	testb  $0x2,(%ebx)
  1001d3:	75 08                	jne    1001dd <bread+0xad>
    ide_rw(b);
  1001d5:	89 1c 24             	mov    %ebx,(%esp)
  1001d8:	e8 13 21 00 00       	call   1022f0 <ide_rw>
  return b;
}
  1001dd:	83 c4 1c             	add    $0x1c,%esp
  1001e0:	89 d8                	mov    %ebx,%eax
  1001e2:	5b                   	pop    %ebx
  1001e3:	5e                   	pop    %esi
  1001e4:	5f                   	pop    %edi
  1001e5:	5d                   	pop    %ebp
  1001e6:	c3                   	ret    
      b->sector = sector;
      release(&buf_table_lock);
      return b;
    }
  }
  panic("bget: no buffers");
  1001e7:	c7 04 24 ee 68 10 00 	movl   $0x1068ee,(%esp)
  1001ee:	e8 6d 07 00 00       	call   100960 <panic>
       b->dev == dev && b->sector == sector){
      if(b->flags & B_BUSY){
        sleep(buf, &buf_table_lock);
        goto loop;
      }
      b->flags |= B_BUSY;
  1001f3:	83 c8 01             	or     $0x1,%eax
  1001f6:	89 03                	mov    %eax,(%ebx)
      release(&buf_table_lock);
  1001f8:	c7 04 24 00 a0 10 00 	movl   $0x10a000,(%esp)
  1001ff:	e8 ec 44 00 00       	call   1046f0 <release>
  100204:	eb ca                	jmp    1001d0 <bread+0xa0>
  100206:	8d 76 00             	lea    0x0(%esi),%esi
  100209:	8d bc 27 00 00 00 00 	lea    0x0(%edi,%eiz,1),%edi

00100210 <binit>:
// bufhead->tail is least recently used.
struct buf bufhead;

void
binit(void)
{
  100210:	55                   	push   %ebp
  100211:	89 e5                	mov    %esp,%ebp
  100213:	83 ec 18             	sub    $0x18,%esp
  struct buf *b;

  initlock(&buf_table_lock, "buf_table");
  100216:	c7 44 24 04 ff 68 10 	movl   $0x1068ff,0x4(%esp)
  10021d:	00 
  10021e:	c7 04 24 00 a0 10 00 	movl   $0x10a000,(%esp)
  100225:	e8 46 43 00 00       	call   104570 <initlock>

  // Create linked list of buffers
  bufhead.prev = &bufhead;
  bufhead.next = &bufhead;
  for(b = buf; b < buf+NBUF; b++){
  10022a:	b8 f0 9f 10 00       	mov    $0x109ff0,%eax
  10022f:	3d 00 8b 10 00       	cmp    $0x108b00,%eax
  struct buf *b;

  initlock(&buf_table_lock, "buf_table");

  // Create linked list of buffers
  bufhead.prev = &bufhead;
  100234:	c7 05 ec 88 10 00 e0 	movl   $0x1088e0,0x1088ec
  10023b:	88 10 00 
  bufhead.next = &bufhead;
  10023e:	c7 05 f0 88 10 00 e0 	movl   $0x1088e0,0x1088f0
  100245:	88 10 00 
  for(b = buf; b < buf+NBUF; b++){
  100248:	76 33                	jbe    10027d <binit+0x6d>
// bufhead->next is most recently used.
// bufhead->tail is least recently used.
struct buf bufhead;

void
binit(void)
  10024a:	ba e0 88 10 00       	mov    $0x1088e0,%edx
  10024f:	b8 00 8b 10 00       	mov    $0x108b00,%eax
  100254:	8d 74 26 00          	lea    0x0(%esi,%eiz,1),%esi

  // Create linked list of buffers
  bufhead.prev = &bufhead;
  bufhead.next = &bufhead;
  for(b = buf; b < buf+NBUF; b++){
    b->next = bufhead.next;
  100258:	89 50 10             	mov    %edx,0x10(%eax)
    b->prev = &bufhead;
  10025b:	c7 40 0c e0 88 10 00 	movl   $0x1088e0,0xc(%eax)
    bufhead.next->prev = b;
  100262:	89 42 0c             	mov    %eax,0xc(%edx)
  initlock(&buf_table_lock, "buf_table");

  // Create linked list of buffers
  bufhead.prev = &bufhead;
  bufhead.next = &bufhead;
  for(b = buf; b < buf+NBUF; b++){
  100265:	89 c2                	mov    %eax,%edx
  100267:	05 18 02 00 00       	add    $0x218,%eax
  10026c:	3d f0 9f 10 00       	cmp    $0x109ff0,%eax
  100271:	75 e5                	jne    100258 <binit+0x48>
  100273:	c7 05 f0 88 10 00 d8 	movl   $0x109dd8,0x1088f0
  10027a:	9d 10 00 
    b->next = bufhead.next;
    b->prev = &bufhead;
    bufhead.next->prev = b;
    bufhead.next = b;
  }
}
  10027d:	c9                   	leave  
  10027e:	c3                   	ret    
  10027f:	90                   	nop

00100280 <console_init>:
  return target - n;
}

void
console_init(void)
{
  100280:	55                   	push   %ebp
  100281:	89 e5                	mov    %esp,%ebp
  100283:	83 ec 18             	sub    $0x18,%esp
  initlock(&console_lock, "console");
  100286:	c7 44 24 04 09 69 10 	movl   $0x106909,0x4(%esp)
  10028d:	00 
  10028e:	c7 04 24 40 88 10 00 	movl   $0x108840,(%esp)
  100295:	e8 d6 42 00 00       	call   104570 <initlock>
  initlock(&input.lock, "console input");
  10029a:	c7 44 24 04 11 69 10 	movl   $0x106911,0x4(%esp)
  1002a1:	00 
  1002a2:	c7 04 24 40 a0 10 00 	movl   $0x10a040,(%esp)
  1002a9:	e8 c2 42 00 00       	call   104570 <initlock>

  devsw[CONSOLE].write = console_write;
  devsw[CONSOLE].read = console_read;
  use_console_lock = 1;

  pic_enable(IRQ_KBD);
  1002ae:	c7 04 24 01 00 00 00 	movl   $0x1,(%esp)
console_init(void)
{
  initlock(&console_lock, "console");
  initlock(&input.lock, "console input");

  devsw[CONSOLE].write = console_write;
  1002b5:	c7 05 ac aa 10 00 d0 	movl   $0x1006d0,0x10aaac
  1002bc:	06 10 00 
  devsw[CONSOLE].read = console_read;
  1002bf:	c7 05 a8 aa 10 00 f0 	movl   $0x1002f0,0x10aaa8
  1002c6:	02 10 00 
  use_console_lock = 1;
  1002c9:	c7 05 24 88 10 00 01 	movl   $0x1,0x108824
  1002d0:	00 00 00 

  pic_enable(IRQ_KBD);
  1002d3:	e8 28 2d 00 00       	call   103000 <pic_enable>
  ioapic_enable(IRQ_KBD, 0);
  1002d8:	c7 44 24 04 00 00 00 	movl   $0x0,0x4(%esp)
  1002df:	00 
  1002e0:	c7 04 24 01 00 00 00 	movl   $0x1,(%esp)
  1002e7:	e8 f4 21 00 00       	call   1024e0 <ioapic_enable>
}
  1002ec:	c9                   	leave  
  1002ed:	c3                   	ret    
  1002ee:	66 90                	xchg   %ax,%ax

001002f0 <console_read>:
  release(&input.lock);
}

int
console_read(struct inode *ip, char *dst, int n)
{
  1002f0:	55                   	push   %ebp
  1002f1:	89 e5                	mov    %esp,%ebp
  1002f3:	57                   	push   %edi
  1002f4:	56                   	push   %esi
  1002f5:	53                   	push   %ebx
  1002f6:	83 ec 2c             	sub    $0x2c,%esp
  1002f9:	8b 5d 10             	mov    0x10(%ebp),%ebx
  1002fc:	8b 75 08             	mov    0x8(%ebp),%esi
  uint target;
  int c;

  iunlock(ip);
  1002ff:	89 34 24             	mov    %esi,(%esp)
  100302:	e8 c9 1b 00 00       	call   101ed0 <iunlock>
  target = n;
  100307:	89 5d e4             	mov    %ebx,-0x1c(%ebp)
  acquire(&input.lock);
  10030a:	c7 04 24 40 a0 10 00 	movl   $0x10a040,(%esp)
  100311:	e8 1a 44 00 00       	call   104730 <acquire>
  while(n > 0){
  100316:	85 db                	test   %ebx,%ebx
  100318:	7f 26                	jg     100340 <console_read+0x50>
  10031a:	e9 bb 00 00 00       	jmp    1003da <console_read+0xea>
  10031f:	90                   	nop
    while(input.r == input.w){
      if(cp->killed){
  100320:	e8 cb 33 00 00       	call   1036f0 <curproc>
  100325:	8b 40 1c             	mov    0x1c(%eax),%eax
  100328:	85 c0                	test   %eax,%eax
  10032a:	75 5c                	jne    100388 <console_read+0x98>
        release(&input.lock);
        ilock(ip);
        return -1;
      }
      sleep(&input.r, &input.lock);
  10032c:	c7 44 24 04 40 a0 10 	movl   $0x10a040,0x4(%esp)
  100333:	00 
  100334:	c7 04 24 f4 a0 10 00 	movl   $0x10a0f4,(%esp)
  10033b:	e8 60 36 00 00       	call   1039a0 <sleep>

  iunlock(ip);
  target = n;
  acquire(&input.lock);
  while(n > 0){
    while(input.r == input.w){
  100340:	a1 f4 a0 10 00       	mov    0x10a0f4,%eax
  100345:	3b 05 f8 a0 10 00    	cmp    0x10a0f8,%eax
  10034b:	74 d3                	je     100320 <console_read+0x30>
        ilock(ip);
        return -1;
      }
      sleep(&input.r, &input.lock);
    }
    c = input.buf[input.r++ % INPUT_BUF];
  10034d:	89 c2                	mov    %eax,%edx
  10034f:	83 e2 7f             	and    $0x7f,%edx
  100352:	0f b6 8a 74 a0 10 00 	movzbl 0x10a074(%edx),%ecx
  100359:	8d 78 01             	lea    0x1(%eax),%edi
  10035c:	89 3d f4 a0 10 00    	mov    %edi,0x10a0f4
  100362:	0f be d1             	movsbl %cl,%edx
    if(c == C('D')){  // EOF
  100365:	83 fa 04             	cmp    $0x4,%edx
  100368:	74 3f                	je     1003a9 <console_read+0xb9>
        // caller gets a 0-byte result.
        input.r--;
      }
      break;
    }
    *dst++ = c;
  10036a:	8b 45 0c             	mov    0xc(%ebp),%eax
    --n;
  10036d:	83 eb 01             	sub    $0x1,%ebx
    if(c == '\n')
  100370:	83 fa 0a             	cmp    $0xa,%edx
        // caller gets a 0-byte result.
        input.r--;
      }
      break;
    }
    *dst++ = c;
  100373:	88 08                	mov    %cl,(%eax)
    --n;
    if(c == '\n')
  100375:	74 3c                	je     1003b3 <console_read+0xc3>
  int c;

  iunlock(ip);
  target = n;
  acquire(&input.lock);
  while(n > 0){
  100377:	85 db                	test   %ebx,%ebx
  100379:	7e 38                	jle    1003b3 <console_read+0xc3>
        // caller gets a 0-byte result.
        input.r--;
      }
      break;
    }
    *dst++ = c;
  10037b:	83 45 0c 01          	addl   $0x1,0xc(%ebp)
  10037f:	eb bf                	jmp    100340 <console_read+0x50>
  100381:	8d b4 26 00 00 00 00 	lea    0x0(%esi,%eiz,1),%esi
  target = n;
  acquire(&input.lock);
  while(n > 0){
    while(input.r == input.w){
      if(cp->killed){
        release(&input.lock);
  100388:	c7 04 24 40 a0 10 00 	movl   $0x10a040,(%esp)
  10038f:	e8 5c 43 00 00       	call   1046f0 <release>
        ilock(ip);
  100394:	89 34 24             	mov    %esi,(%esp)
  100397:	e8 a4 1b 00 00       	call   101f40 <ilock>
  }
  release(&input.lock);
  ilock(ip);

  return target - n;
}
  10039c:	83 c4 2c             	add    $0x2c,%esp
  acquire(&input.lock);
  while(n > 0){
    while(input.r == input.w){
      if(cp->killed){
        release(&input.lock);
        ilock(ip);
  10039f:	b8 ff ff ff ff       	mov    $0xffffffff,%eax
  }
  release(&input.lock);
  ilock(ip);

  return target - n;
}
  1003a4:	5b                   	pop    %ebx
  1003a5:	5e                   	pop    %esi
  1003a6:	5f                   	pop    %edi
  1003a7:	5d                   	pop    %ebp
  1003a8:	c3                   	ret    
      }
      sleep(&input.r, &input.lock);
    }
    c = input.buf[input.r++ % INPUT_BUF];
    if(c == C('D')){  // EOF
      if(n < target){
  1003a9:	39 5d e4             	cmp    %ebx,-0x1c(%ebp)
  1003ac:	76 05                	jbe    1003b3 <console_read+0xc3>
        // Save ^D for next time, to make sure
        // caller gets a 0-byte result.
        input.r--;
  1003ae:	a3 f4 a0 10 00       	mov    %eax,0x10a0f4
  1003b3:	8b 45 e4             	mov    -0x1c(%ebp),%eax
  1003b6:	29 d8                	sub    %ebx,%eax
    *dst++ = c;
    --n;
    if(c == '\n')
      break;
  }
  release(&input.lock);
  1003b8:	c7 04 24 40 a0 10 00 	movl   $0x10a040,(%esp)
  1003bf:	89 45 e0             	mov    %eax,-0x20(%ebp)
  1003c2:	e8 29 43 00 00       	call   1046f0 <release>
  ilock(ip);
  1003c7:	89 34 24             	mov    %esi,(%esp)
  1003ca:	e8 71 1b 00 00       	call   101f40 <ilock>
  1003cf:	8b 45 e0             	mov    -0x20(%ebp),%eax

  return target - n;
}
  1003d2:	83 c4 2c             	add    $0x2c,%esp
  1003d5:	5b                   	pop    %ebx
  1003d6:	5e                   	pop    %esi
  1003d7:	5f                   	pop    %edi
  1003d8:	5d                   	pop    %ebp
  1003d9:	c3                   	ret    

  iunlock(ip);
  target = n;
  acquire(&input.lock);
  while(n > 0){
    while(input.r == input.w){
  1003da:	31 c0                	xor    %eax,%eax
  1003dc:	eb da                	jmp    1003b8 <console_read+0xc8>
  1003de:	66 90                	xchg   %ax,%ax

001003e0 <cons_putc>:
  crt[pos] = ' ' | 0x0700;
}

void
cons_putc(int c)
{
  1003e0:	55                   	push   %ebp
  1003e1:	89 e5                	mov    %esp,%ebp
  1003e3:	57                   	push   %edi
  1003e4:	56                   	push   %esi
  1003e5:	53                   	push   %ebx
  1003e6:	83 ec 1c             	sub    $0x1c,%esp
  1003e9:	8b 4d 08             	mov    0x8(%ebp),%ecx
  if(panicked){
  1003ec:	83 3d 20 88 10 00 00 	cmpl   $0x0,0x108820
  1003f3:	0f 85 e1 00 00 00    	jne    1004da <cons_putc+0xfa>
static inline uchar
inb(ushort port)
{
  uchar data;

  asm volatile("in %1,%0" : "=a" (data) : "d" (port));
  1003f9:	b8 79 03 00 00       	mov    $0x379,%eax
  1003fe:	89 c2                	mov    %eax,%edx
  100400:	ec                   	in     (%dx),%al
}

static inline void
cli(void)
{
  asm volatile("cli");
  100401:	31 db                	xor    %ebx,%ebx
static void
lpt_putc(int c)
{
  int i;

  for(i = 0; !(inb(LPTPORT+1) & 0x80) && i < 12800; i++)
  100403:	84 c0                	test   %al,%al
  100405:	79 14                	jns    10041b <cons_putc+0x3b>
  100407:	eb 19                	jmp    100422 <cons_putc+0x42>
  100409:	8d b4 26 00 00 00 00 	lea    0x0(%esi,%eiz,1),%esi
  100410:	83 c3 01             	add    $0x1,%ebx
  100413:	81 fb 00 32 00 00    	cmp    $0x3200,%ebx
  100419:	74 07                	je     100422 <cons_putc+0x42>
static inline uchar
inb(ushort port)
{
  uchar data;

  asm volatile("in %1,%0" : "=a" (data) : "d" (port));
  10041b:	ec                   	in     (%dx),%al
  10041c:	84 c0                	test   %al,%al
  10041e:	66 90                	xchg   %ax,%ax
  100420:	79 ee                	jns    100410 <cons_putc+0x30>
    ;
  if(c == BACKSPACE)
  100422:	81 f9 00 01 00 00    	cmp    $0x100,%ecx
  100428:	89 c8                	mov    %ecx,%eax
  10042a:	0f 84 ad 00 00 00    	je     1004dd <cons_putc+0xfd>
}

static inline void
outb(ushort port, uchar data)
{
  asm volatile("out %0,%1" : : "a" (data), "d" (port));
  100430:	ba 78 03 00 00       	mov    $0x378,%edx
  100435:	ee                   	out    %al,(%dx)
  100436:	b8 0d 00 00 00       	mov    $0xd,%eax
  10043b:	b2 7a                	mov    $0x7a,%dl
  10043d:	ee                   	out    %al,(%dx)
  10043e:	b8 08 00 00 00       	mov    $0x8,%eax
  100443:	ee                   	out    %al,(%dx)
  100444:	be d4 03 00 00       	mov    $0x3d4,%esi
  100449:	b8 0e 00 00 00       	mov    $0xe,%eax
  10044e:	89 f2                	mov    %esi,%edx
  100450:	ee                   	out    %al,(%dx)
static inline uchar
inb(ushort port)
{
  uchar data;

  asm volatile("in %1,%0" : "=a" (data) : "d" (port));
  100451:	bf d5 03 00 00       	mov    $0x3d5,%edi
  100456:	89 fa                	mov    %edi,%edx
  100458:	ec                   	in     (%dx),%al
{
  int pos;
  
  // Cursor position: col + 80*row.
  outb(CRTPORT, 14);
  pos = inb(CRTPORT+1) << 8;
  100459:	0f b6 d8             	movzbl %al,%ebx
}

static inline void
outb(ushort port, uchar data)
{
  asm volatile("out %0,%1" : : "a" (data), "d" (port));
  10045c:	89 f2                	mov    %esi,%edx
  10045e:	c1 e3 08             	shl    $0x8,%ebx
  100461:	b8 0f 00 00 00       	mov    $0xf,%eax
  100466:	ee                   	out    %al,(%dx)
static inline uchar
inb(ushort port)
{
  uchar data;

  asm volatile("in %1,%0" : "=a" (data) : "d" (port));
  100467:	89 fa                	mov    %edi,%edx
  100469:	ec                   	in     (%dx),%al
  outb(CRTPORT, 15);
  pos |= inb(CRTPORT+1);
  10046a:	0f b6 c0             	movzbl %al,%eax
  10046d:	09 c3                	or     %eax,%ebx

  if(c == '\n')
  10046f:	83 f9 0a             	cmp    $0xa,%ecx
  100472:	0f 84 da 00 00 00    	je     100552 <cons_putc+0x172>
    pos += 80 - pos%80;
  else if(c == BACKSPACE){
  100478:	81 f9 00 01 00 00    	cmp    $0x100,%ecx
  10047e:	0f 84 ad 00 00 00    	je     100531 <cons_putc+0x151>
    if(pos > 0)
      crt[--pos] = ' ' | 0x0700;
  } else
    crt[pos++] = (c&0xff) | 0x0700;  // black on white
  100484:	66 81 e1 ff 00       	and    $0xff,%cx
  100489:	80 cd 07             	or     $0x7,%ch
  10048c:	66 89 8c 1b 00 80 0b 	mov    %cx,0xb8000(%ebx,%ebx,1)
  100493:	00 
  100494:	83 c3 01             	add    $0x1,%ebx
  
  if((pos/80) >= 24){  // Scroll up.
  100497:	81 fb 7f 07 00 00    	cmp    $0x77f,%ebx
  10049d:	8d 8c 1b 00 80 0b 00 	lea    0xb8000(%ebx,%ebx,1),%ecx
  1004a4:	7f 41                	jg     1004e7 <cons_putc+0x107>
}

static inline void
outb(ushort port, uchar data)
{
  asm volatile("out %0,%1" : : "a" (data), "d" (port));
  1004a6:	be d4 03 00 00       	mov    $0x3d4,%esi
  1004ab:	b8 0e 00 00 00       	mov    $0xe,%eax
  1004b0:	89 f2                	mov    %esi,%edx
  1004b2:	ee                   	out    %al,(%dx)
  1004b3:	bf d5 03 00 00       	mov    $0x3d5,%edi
  1004b8:	89 d8                	mov    %ebx,%eax
  1004ba:	c1 f8 08             	sar    $0x8,%eax
  1004bd:	89 fa                	mov    %edi,%edx
  1004bf:	ee                   	out    %al,(%dx)
  1004c0:	b8 0f 00 00 00       	mov    $0xf,%eax
  1004c5:	89 f2                	mov    %esi,%edx
  1004c7:	ee                   	out    %al,(%dx)
  1004c8:	89 d8                	mov    %ebx,%eax
  1004ca:	89 fa                	mov    %edi,%edx
  1004cc:	ee                   	out    %al,(%dx)
  
  outb(CRTPORT, 14);
  outb(CRTPORT+1, pos>>8);
  outb(CRTPORT, 15);
  outb(CRTPORT+1, pos);
  crt[pos] = ' ' | 0x0700;
  1004cd:	66 c7 01 20 07       	movw   $0x720,(%ecx)
      ;
  }

  lpt_putc(c);
  cga_putc(c);
}
  1004d2:	83 c4 1c             	add    $0x1c,%esp
  1004d5:	5b                   	pop    %ebx
  1004d6:	5e                   	pop    %esi
  1004d7:	5f                   	pop    %edi
  1004d8:	5d                   	pop    %ebp
  1004d9:	c3                   	ret    
}

static inline void
cli(void)
{
  asm volatile("cli");
  1004da:	fa                   	cli    
  1004db:	eb fe                	jmp    1004db <cons_putc+0xfb>
{
  int i;

  for(i = 0; !(inb(LPTPORT+1) & 0x80) && i < 12800; i++)
    ;
  if(c == BACKSPACE)
  1004dd:	b8 08 00 00 00       	mov    $0x8,%eax
  1004e2:	e9 49 ff ff ff       	jmp    100430 <cons_putc+0x50>
  } else
    crt[pos++] = (c&0xff) | 0x0700;  // black on white
  
  if((pos/80) >= 24){  // Scroll up.
    memmove(crt, crt+80, sizeof(crt[0])*23*80);
    pos -= 80;
  1004e7:	83 eb 50             	sub    $0x50,%ebx
      crt[--pos] = ' ' | 0x0700;
  } else
    crt[pos++] = (c&0xff) | 0x0700;  // black on white
  
  if((pos/80) >= 24){  // Scroll up.
    memmove(crt, crt+80, sizeof(crt[0])*23*80);
  1004ea:	c7 44 24 08 60 0e 00 	movl   $0xe60,0x8(%esp)
  1004f1:	00 
    pos -= 80;
    memset(crt+pos, 0, sizeof(crt[0])*(24*80 - pos));
  1004f2:	8d b4 1b 00 80 0b 00 	lea    0xb8000(%ebx,%ebx,1),%esi
      crt[--pos] = ' ' | 0x0700;
  } else
    crt[pos++] = (c&0xff) | 0x0700;  // black on white
  
  if((pos/80) >= 24){  // Scroll up.
    memmove(crt, crt+80, sizeof(crt[0])*23*80);
  1004f9:	c7 44 24 04 a0 80 0b 	movl   $0xb80a0,0x4(%esp)
  100500:	00 
  100501:	c7 04 24 00 80 0b 00 	movl   $0xb8000,(%esp)
  100508:	e8 23 43 00 00       	call   104830 <memmove>
    pos -= 80;
    memset(crt+pos, 0, sizeof(crt[0])*(24*80 - pos));
  10050d:	b8 80 07 00 00       	mov    $0x780,%eax
  100512:	29 d8                	sub    %ebx,%eax
  100514:	01 c0                	add    %eax,%eax
  100516:	89 44 24 08          	mov    %eax,0x8(%esp)
  10051a:	c7 44 24 04 00 00 00 	movl   $0x0,0x4(%esp)
  100521:	00 
  100522:	89 34 24             	mov    %esi,(%esp)
  100525:	e8 76 42 00 00       	call   1047a0 <memset>
  outb(CRTPORT+1, pos);
  crt[pos] = ' ' | 0x0700;
}

void
cons_putc(int c)
  10052a:	89 f1                	mov    %esi,%ecx
  10052c:	e9 75 ff ff ff       	jmp    1004a6 <cons_putc+0xc6>
  pos |= inb(CRTPORT+1);

  if(c == '\n')
    pos += 80 - pos%80;
  else if(c == BACKSPACE){
    if(pos > 0)
  100531:	85 db                	test   %ebx,%ebx
  100533:	8d 8c 1b 00 80 0b 00 	lea    0xb8000(%ebx,%ebx,1),%ecx
  10053a:	0f 8e 66 ff ff ff    	jle    1004a6 <cons_putc+0xc6>
      crt[--pos] = ' ' | 0x0700;
  100540:	83 eb 01             	sub    $0x1,%ebx
  100543:	66 c7 84 1b 00 80 0b 	movw   $0x720,0xb8000(%ebx,%ebx,1)
  10054a:	00 20 07 
  10054d:	e9 45 ff ff ff       	jmp    100497 <cons_putc+0xb7>
  pos = inb(CRTPORT+1) << 8;
  outb(CRTPORT, 15);
  pos |= inb(CRTPORT+1);

  if(c == '\n')
    pos += 80 - pos%80;
  100552:	b8 50 00 00 00       	mov    $0x50,%eax
  100557:	89 da                	mov    %ebx,%edx
  100559:	89 c1                	mov    %eax,%ecx
  10055b:	89 d8                	mov    %ebx,%eax
  10055d:	c1 fa 1f             	sar    $0x1f,%edx
  100560:	83 c3 50             	add    $0x50,%ebx
  100563:	f7 f9                	idiv   %ecx
  100565:	29 d3                	sub    %edx,%ebx
  100567:	e9 2b ff ff ff       	jmp    100497 <cons_putc+0xb7>
  10056c:	8d 74 26 00          	lea    0x0(%esi,%eiz,1),%esi

00100570 <console_intr>:

#define C(x)  ((x)-'@')  // Control-x

void
console_intr(int (*getc)(void))
{
  100570:	55                   	push   %ebp
  100571:	89 e5                	mov    %esp,%ebp
  100573:	56                   	push   %esi
        cons_putc(BACKSPACE);
      }
      break;
    default:
      if(c != 0 && input.e-input.r < INPUT_BUF){
        input.buf[input.e++ % INPUT_BUF] = c;
  100574:	be 70 a0 10 00       	mov    $0x10a070,%esi

#define C(x)  ((x)-'@')  // Control-x

void
console_intr(int (*getc)(void))
{
  100579:	53                   	push   %ebx
  10057a:	83 ec 20             	sub    $0x20,%esp
  10057d:	8b 5d 08             	mov    0x8(%ebp),%ebx
  int c;

  acquire(&input.lock);
  100580:	c7 04 24 40 a0 10 00 	movl   $0x10a040,(%esp)
  100587:	e8 a4 41 00 00       	call   104730 <acquire>
  10058c:	8d 74 26 00          	lea    0x0(%esi,%eiz,1),%esi
  while((c = getc()) >= 0){
  100590:	ff d3                	call   *%ebx
  100592:	85 c0                	test   %eax,%eax
  100594:	0f 88 8e 00 00 00    	js     100628 <console_intr+0xb8>
    switch(c){
  10059a:	83 f8 10             	cmp    $0x10,%eax
  10059d:	8d 76 00             	lea    0x0(%esi),%esi
  1005a0:	0f 84 d2 00 00 00    	je     100678 <console_intr+0x108>
  1005a6:	83 f8 15             	cmp    $0x15,%eax
  1005a9:	0f 84 b7 00 00 00    	je     100666 <console_intr+0xf6>
  1005af:	83 f8 08             	cmp    $0x8,%eax
  1005b2:	0f 84 d0 00 00 00    	je     100688 <console_intr+0x118>
        input.e--;
        cons_putc(BACKSPACE);
      }
      break;
    default:
      if(c != 0 && input.e-input.r < INPUT_BUF){
  1005b8:	85 c0                	test   %eax,%eax
  1005ba:	74 d4                	je     100590 <console_intr+0x20>
  1005bc:	8b 15 fc a0 10 00    	mov    0x10a0fc,%edx
  1005c2:	89 d1                	mov    %edx,%ecx
  1005c4:	2b 0d f4 a0 10 00    	sub    0x10a0f4,%ecx
  1005ca:	83 f9 7f             	cmp    $0x7f,%ecx
  1005cd:	77 c1                	ja     100590 <console_intr+0x20>
        input.buf[input.e++ % INPUT_BUF] = c;
  1005cf:	89 d1                	mov    %edx,%ecx
  1005d1:	83 c2 01             	add    $0x1,%edx
  1005d4:	83 e1 7f             	and    $0x7f,%ecx
  1005d7:	88 44 0e 04          	mov    %al,0x4(%esi,%ecx,1)
        cons_putc(c);
  1005db:	89 04 24             	mov    %eax,(%esp)
  1005de:	89 45 f4             	mov    %eax,-0xc(%ebp)
        cons_putc(BACKSPACE);
      }
      break;
    default:
      if(c != 0 && input.e-input.r < INPUT_BUF){
        input.buf[input.e++ % INPUT_BUF] = c;
  1005e1:	89 15 fc a0 10 00    	mov    %edx,0x10a0fc
        cons_putc(c);
  1005e7:	e8 f4 fd ff ff       	call   1003e0 <cons_putc>
        if(c == '\n' || c == C('D') || input.e == input.r+INPUT_BUF){
  1005ec:	8b 45 f4             	mov    -0xc(%ebp),%eax
  1005ef:	83 f8 04             	cmp    $0x4,%eax
  1005f2:	0f 84 ba 00 00 00    	je     1006b2 <console_intr+0x142>
  1005f8:	83 f8 0a             	cmp    $0xa,%eax
  1005fb:	0f 84 b1 00 00 00    	je     1006b2 <console_intr+0x142>
  100601:	8b 15 f4 a0 10 00    	mov    0x10a0f4,%edx
  100607:	a1 fc a0 10 00       	mov    0x10a0fc,%eax
  10060c:	83 ea 80             	sub    $0xffffff80,%edx
  10060f:	39 d0                	cmp    %edx,%eax
  100611:	0f 84 a0 00 00 00    	je     1006b7 <console_intr+0x147>
console_intr(int (*getc)(void))
{
  int c;

  acquire(&input.lock);
  while((c = getc()) >= 0){
  100617:	ff d3                	call   *%ebx
  100619:	85 c0                	test   %eax,%eax
  10061b:	0f 89 79 ff ff ff    	jns    10059a <console_intr+0x2a>
  100621:	8d b4 26 00 00 00 00 	lea    0x0(%esi,%eiz,1),%esi
        }
      }
      break;
    }
  }
  release(&input.lock);
  100628:	c7 45 08 40 a0 10 00 	movl   $0x10a040,0x8(%ebp)
}
  10062f:	83 c4 20             	add    $0x20,%esp
  100632:	5b                   	pop    %ebx
  100633:	5e                   	pop    %esi
  100634:	5d                   	pop    %ebp
        }
      }
      break;
    }
  }
  release(&input.lock);
  100635:	e9 b6 40 00 00       	jmp    1046f0 <release>
  10063a:	8d b6 00 00 00 00    	lea    0x0(%esi),%esi
    case C('P'):  // Process listing.
      procdump();
      break;
    case C('U'):  // Kill line.
      while(input.e != input.w &&
            input.buf[(input.e-1) % INPUT_BUF] != '\n'){
  100640:	83 e8 01             	sub    $0x1,%eax
  100643:	89 c2                	mov    %eax,%edx
  100645:	83 e2 7f             	and    $0x7f,%edx
  100648:	80 ba 74 a0 10 00 0a 	cmpb   $0xa,0x10a074(%edx)
  10064f:	0f 84 3b ff ff ff    	je     100590 <console_intr+0x20>
        input.e--;
  100655:	a3 fc a0 10 00       	mov    %eax,0x10a0fc
        cons_putc(BACKSPACE);
  10065a:	c7 04 24 00 01 00 00 	movl   $0x100,(%esp)
  100661:	e8 7a fd ff ff       	call   1003e0 <cons_putc>
    switch(c){
    case C('P'):  // Process listing.
      procdump();
      break;
    case C('U'):  // Kill line.
      while(input.e != input.w &&
  100666:	a1 fc a0 10 00       	mov    0x10a0fc,%eax
  10066b:	3b 05 f8 a0 10 00    	cmp    0x10a0f8,%eax
  100671:	75 cd                	jne    100640 <console_intr+0xd0>
  100673:	e9 18 ff ff ff       	jmp    100590 <console_intr+0x20>

  acquire(&input.lock);
  while((c = getc()) >= 0){
    switch(c){
    case C('P'):  // Process listing.
      procdump();
  100678:	e8 13 2e 00 00       	call   103490 <procdump>
  10067d:	8d 76 00             	lea    0x0(%esi),%esi
      break;
  100680:	e9 0b ff ff ff       	jmp    100590 <console_intr+0x20>
  100685:	8d 76 00             	lea    0x0(%esi),%esi
        input.e--;
        cons_putc(BACKSPACE);
      }
      break;
    case C('H'):  // Backspace
      if(input.e != input.w){
  100688:	a1 fc a0 10 00       	mov    0x10a0fc,%eax
  10068d:	3b 05 f8 a0 10 00    	cmp    0x10a0f8,%eax
  100693:	0f 84 f7 fe ff ff    	je     100590 <console_intr+0x20>
        input.e--;
  100699:	83 e8 01             	sub    $0x1,%eax
  10069c:	a3 fc a0 10 00       	mov    %eax,0x10a0fc
        cons_putc(BACKSPACE);
  1006a1:	c7 04 24 00 01 00 00 	movl   $0x100,(%esp)
  1006a8:	e8 33 fd ff ff       	call   1003e0 <cons_putc>
  1006ad:	e9 de fe ff ff       	jmp    100590 <console_intr+0x20>
      break;
    default:
      if(c != 0 && input.e-input.r < INPUT_BUF){
        input.buf[input.e++ % INPUT_BUF] = c;
        cons_putc(c);
        if(c == '\n' || c == C('D') || input.e == input.r+INPUT_BUF){
  1006b2:	a1 fc a0 10 00       	mov    0x10a0fc,%eax
          input.w = input.e;
  1006b7:	a3 f8 a0 10 00       	mov    %eax,0x10a0f8
          wakeup(&input.r);
  1006bc:	c7 04 24 f4 a0 10 00 	movl   $0x10a0f4,(%esp)
  1006c3:	e8 28 2f 00 00       	call   1035f0 <wakeup>
  1006c8:	e9 c3 fe ff ff       	jmp    100590 <console_intr+0x20>
  1006cd:	8d 76 00             	lea    0x0(%esi),%esi

001006d0 <console_write>:
    release(&console_lock);
}

int
console_write(struct inode *ip, char *buf, int n)
{
  1006d0:	55                   	push   %ebp
  1006d1:	89 e5                	mov    %esp,%ebp
  1006d3:	57                   	push   %edi
  1006d4:	56                   	push   %esi
  1006d5:	53                   	push   %ebx
  1006d6:	83 ec 1c             	sub    $0x1c,%esp
  int i;

  iunlock(ip);
  1006d9:	8b 45 08             	mov    0x8(%ebp),%eax
    release(&console_lock);
}

int
console_write(struct inode *ip, char *buf, int n)
{
  1006dc:	8b 75 10             	mov    0x10(%ebp),%esi
  1006df:	8b 7d 0c             	mov    0xc(%ebp),%edi
  int i;

  iunlock(ip);
  1006e2:	89 04 24             	mov    %eax,(%esp)
  1006e5:	e8 e6 17 00 00       	call   101ed0 <iunlock>
  acquire(&console_lock);
  1006ea:	c7 04 24 40 88 10 00 	movl   $0x108840,(%esp)
  1006f1:	e8 3a 40 00 00       	call   104730 <acquire>
  for(i = 0; i < n; i++)
  1006f6:	85 f6                	test   %esi,%esi
  1006f8:	7e 19                	jle    100713 <console_write+0x43>
  1006fa:	31 db                	xor    %ebx,%ebx
  1006fc:	8d 74 26 00          	lea    0x0(%esi,%eiz,1),%esi
    cons_putc(buf[i] & 0xff);
  100700:	0f b6 14 1f          	movzbl (%edi,%ebx,1),%edx
{
  int i;

  iunlock(ip);
  acquire(&console_lock);
  for(i = 0; i < n; i++)
  100704:	83 c3 01             	add    $0x1,%ebx
    cons_putc(buf[i] & 0xff);
  100707:	89 14 24             	mov    %edx,(%esp)
  10070a:	e8 d1 fc ff ff       	call   1003e0 <cons_putc>
{
  int i;

  iunlock(ip);
  acquire(&console_lock);
  for(i = 0; i < n; i++)
  10070f:	39 de                	cmp    %ebx,%esi
  100711:	7f ed                	jg     100700 <console_write+0x30>
    cons_putc(buf[i] & 0xff);
  release(&console_lock);
  100713:	c7 04 24 40 88 10 00 	movl   $0x108840,(%esp)
  10071a:	e8 d1 3f 00 00       	call   1046f0 <release>
  ilock(ip);
  10071f:	8b 45 08             	mov    0x8(%ebp),%eax
  100722:	89 04 24             	mov    %eax,(%esp)
  100725:	e8 16 18 00 00       	call   101f40 <ilock>

  return n;
}
  10072a:	83 c4 1c             	add    $0x1c,%esp
  10072d:	89 f0                	mov    %esi,%eax
  10072f:	5b                   	pop    %ebx
  100730:	5e                   	pop    %esi
  100731:	5f                   	pop    %edi
  100732:	5d                   	pop    %ebp
  100733:	c3                   	ret    
  100734:	8d b6 00 00 00 00    	lea    0x0(%esi),%esi
  10073a:	8d bf 00 00 00 00    	lea    0x0(%edi),%edi

00100740 <printint>:
  cga_putc(c);
}

void
printint(int xx, int base, int sgn)
{
  100740:	55                   	push   %ebp
  100741:	89 e5                	mov    %esp,%ebp
  100743:	57                   	push   %edi
  100744:	56                   	push   %esi
  100745:	53                   	push   %ebx
  100746:	83 ec 2c             	sub    $0x2c,%esp
  static char digits[] = "0123456789ABCDEF";
  char buf[16];
  int i = 0, neg = 0;
  uint x;

  if(sgn && xx < 0){
  100749:	8b 55 10             	mov    0x10(%ebp),%edx
  cga_putc(c);
}

void
printint(int xx, int base, int sgn)
{
  10074c:	8b 45 08             	mov    0x8(%ebp),%eax
  10074f:	8b 75 0c             	mov    0xc(%ebp),%esi
  static char digits[] = "0123456789ABCDEF";
  char buf[16];
  int i = 0, neg = 0;
  uint x;

  if(sgn && xx < 0){
  100752:	85 d2                	test   %edx,%edx
  100754:	74 04                	je     10075a <printint+0x1a>
  100756:	85 c0                	test   %eax,%eax
  100758:	78 54                	js     1007ae <printint+0x6e>
    neg = 1;
    x = 0 - xx;
  } else {
    x = xx;
  10075a:	31 ff                	xor    %edi,%edi
  10075c:	31 c9                	xor    %ecx,%ecx
  10075e:	8d 5d d8             	lea    -0x28(%ebp),%ebx
  100761:	8d b4 26 00 00 00 00 	lea    0x0(%esi,%eiz,1),%esi
  }

  do{
    buf[i++] = digits[x % base];
  100768:	31 d2                	xor    %edx,%edx
  10076a:	f7 f6                	div    %esi
  10076c:	0f b6 92 39 69 10 00 	movzbl 0x106939(%edx),%edx
  100773:	88 14 0b             	mov    %dl,(%ebx,%ecx,1)
  100776:	83 c1 01             	add    $0x1,%ecx
  }while((x /= base) != 0);
  100779:	85 c0                	test   %eax,%eax
  10077b:	75 eb                	jne    100768 <printint+0x28>
  if(neg)
  10077d:	85 ff                	test   %edi,%edi
  10077f:	74 08                	je     100789 <printint+0x49>
    buf[i++] = '-';
  100781:	c6 44 0d d8 2d       	movb   $0x2d,-0x28(%ebp,%ecx,1)
  100786:	83 c1 01             	add    $0x1,%ecx

  while(--i >= 0)
  100789:	8d 71 ff             	lea    -0x1(%ecx),%esi
  10078c:	01 f3                	add    %esi,%ebx
  10078e:	66 90                	xchg   %ax,%ax
    cons_putc(buf[i]);
  100790:	0f be 03             	movsbl (%ebx),%eax
    buf[i++] = digits[x % base];
  }while((x /= base) != 0);
  if(neg)
    buf[i++] = '-';

  while(--i >= 0)
  100793:	83 ee 01             	sub    $0x1,%esi
  100796:	83 eb 01             	sub    $0x1,%ebx
    cons_putc(buf[i]);
  100799:	89 04 24             	mov    %eax,(%esp)
  10079c:	e8 3f fc ff ff       	call   1003e0 <cons_putc>
    buf[i++] = digits[x % base];
  }while((x /= base) != 0);
  if(neg)
    buf[i++] = '-';

  while(--i >= 0)
  1007a1:	83 fe ff             	cmp    $0xffffffff,%esi
  1007a4:	75 ea                	jne    100790 <printint+0x50>
    cons_putc(buf[i]);
}
  1007a6:	83 c4 2c             	add    $0x2c,%esp
  1007a9:	5b                   	pop    %ebx
  1007aa:	5e                   	pop    %esi
  1007ab:	5f                   	pop    %edi
  1007ac:	5d                   	pop    %ebp
  1007ad:	c3                   	ret    
  int i = 0, neg = 0;
  uint x;

  if(sgn && xx < 0){
    neg = 1;
    x = 0 - xx;
  1007ae:	f7 d8                	neg    %eax
  1007b0:	bf 01 00 00 00       	mov    $0x1,%edi
  1007b5:	eb a5                	jmp    10075c <printint+0x1c>
  1007b7:	89 f6                	mov    %esi,%esi
  1007b9:	8d bc 27 00 00 00 00 	lea    0x0(%edi,%eiz,1),%edi

001007c0 <cprintf>:
}

// Print to the console. only understands %d, %x, %p, %s.
void
cprintf(char *fmt, ...)
{
  1007c0:	55                   	push   %ebp
  1007c1:	89 e5                	mov    %esp,%ebp
  1007c3:	57                   	push   %edi
  1007c4:	56                   	push   %esi
  1007c5:	53                   	push   %ebx
  1007c6:	83 ec 2c             	sub    $0x2c,%esp
  int i, c, state, locking;
  uint *argp;
  char *s;

  locking = use_console_lock;
  1007c9:	a1 24 88 10 00       	mov    0x108824,%eax
  if(locking)
  1007ce:	85 c0                	test   %eax,%eax
{
  int i, c, state, locking;
  uint *argp;
  char *s;

  locking = use_console_lock;
  1007d0:	89 45 e4             	mov    %eax,-0x1c(%ebp)
  if(locking)
  1007d3:	0f 85 67 01 00 00    	jne    100940 <cprintf+0x180>
    acquire(&console_lock);

  argp = (uint*)(void*)&fmt + 1;
  state = 0;
  for(i = 0; fmt[i]; i++){
  1007d9:	8b 55 08             	mov    0x8(%ebp),%edx
  1007dc:	0f b6 02             	movzbl (%edx),%eax
  1007df:	84 c0                	test   %al,%al
  1007e1:	0f 84 81 00 00 00    	je     100868 <cprintf+0xa8>

  locking = use_console_lock;
  if(locking)
    acquire(&console_lock);

  argp = (uint*)(void*)&fmt + 1;
  1007e7:	8d 7d 0c             	lea    0xc(%ebp),%edi
  1007ea:	31 f6                	xor    %esi,%esi
  1007ec:	31 db                	xor    %ebx,%ebx
  1007ee:	eb 1b                	jmp    10080b <cprintf+0x4b>
  state = 0;
  for(i = 0; fmt[i]; i++){
    c = fmt[i] & 0xff;
    switch(state){
    case 0:
      if(c == '%')
  1007f0:	83 f8 25             	cmp    $0x25,%eax
  1007f3:	0f 85 8f 00 00 00    	jne    100888 <cprintf+0xc8>
  1007f9:	be 25 00 00 00       	mov    $0x25,%esi
  1007fe:	66 90                	xchg   %ax,%ax
  if(locking)
    acquire(&console_lock);

  argp = (uint*)(void*)&fmt + 1;
  state = 0;
  for(i = 0; fmt[i]; i++){
  100800:	83 c3 01             	add    $0x1,%ebx
  100803:	0f b6 04 1a          	movzbl (%edx,%ebx,1),%eax
  100807:	84 c0                	test   %al,%al
  100809:	74 5d                	je     100868 <cprintf+0xa8>
    c = fmt[i] & 0xff;
    switch(state){
  10080b:	85 f6                	test   %esi,%esi
    acquire(&console_lock);

  argp = (uint*)(void*)&fmt + 1;
  state = 0;
  for(i = 0; fmt[i]; i++){
    c = fmt[i] & 0xff;
  10080d:	0f b6 c0             	movzbl %al,%eax
    switch(state){
  100810:	74 de                	je     1007f0 <cprintf+0x30>
  100812:	83 fe 25             	cmp    $0x25,%esi
  100815:	75 e9                	jne    100800 <cprintf+0x40>
      else
        cons_putc(c);
      break;
    
    case '%':
      switch(c){
  100817:	83 f8 70             	cmp    $0x70,%eax
  10081a:	0f 84 82 00 00 00    	je     1008a2 <cprintf+0xe2>
  100820:	7f 76                	jg     100898 <cprintf+0xd8>
  100822:	83 f8 25             	cmp    $0x25,%eax
  100825:	8d 76 00             	lea    0x0(%esi),%esi
  100828:	0f 84 fa 00 00 00    	je     100928 <cprintf+0x168>
  10082e:	83 f8 64             	cmp    $0x64,%eax
  100831:	8d b4 26 00 00 00 00 	lea    0x0(%esi,%eiz,1),%esi
  100838:	0f 84 c2 00 00 00    	je     100900 <cprintf+0x140>
      case '%':
        cons_putc('%');
        break;
      default:
        // Print unknown % sequence to draw attention.
        cons_putc('%');
  10083e:	89 45 e0             	mov    %eax,-0x20(%ebp)
  if(locking)
    acquire(&console_lock);

  argp = (uint*)(void*)&fmt + 1;
  state = 0;
  for(i = 0; fmt[i]; i++){
  100841:	83 c3 01             	add    $0x1,%ebx
        cons_putc('%');
        break;
      default:
        // Print unknown % sequence to draw attention.
        cons_putc('%');
        cons_putc(c);
  100844:	31 f6                	xor    %esi,%esi
      case '%':
        cons_putc('%');
        break;
      default:
        // Print unknown % sequence to draw attention.
        cons_putc('%');
  100846:	c7 04 24 25 00 00 00 	movl   $0x25,(%esp)
  10084d:	e8 8e fb ff ff       	call   1003e0 <cons_putc>
        cons_putc(c);
  100852:	8b 45 e0             	mov    -0x20(%ebp),%eax
  100855:	89 04 24             	mov    %eax,(%esp)
  100858:	e8 83 fb ff ff       	call   1003e0 <cons_putc>
  10085d:	8b 55 08             	mov    0x8(%ebp),%edx
  if(locking)
    acquire(&console_lock);

  argp = (uint*)(void*)&fmt + 1;
  state = 0;
  for(i = 0; fmt[i]; i++){
  100860:	0f b6 04 1a          	movzbl (%edx,%ebx,1),%eax
  100864:	84 c0                	test   %al,%al
  100866:	75 a3                	jne    10080b <cprintf+0x4b>
      state = 0;
      break;
    }
  }

  if(locking)
  100868:	8b 4d e4             	mov    -0x1c(%ebp),%ecx
  10086b:	85 c9                	test   %ecx,%ecx
  10086d:	74 0c                	je     10087b <cprintf+0xbb>
    release(&console_lock);
  10086f:	c7 04 24 40 88 10 00 	movl   $0x108840,(%esp)
  100876:	e8 75 3e 00 00       	call   1046f0 <release>
}
  10087b:	83 c4 2c             	add    $0x2c,%esp
  10087e:	5b                   	pop    %ebx
  10087f:	5e                   	pop    %esi
  100880:	5f                   	pop    %edi
  100881:	5d                   	pop    %ebp
  100882:	c3                   	ret    
  100883:	90                   	nop
  100884:	8d 74 26 00          	lea    0x0(%esi,%eiz,1),%esi
    switch(state){
    case 0:
      if(c == '%')
        state = '%';
      else
        cons_putc(c);
  100888:	89 04 24             	mov    %eax,(%esp)
  10088b:	e8 50 fb ff ff       	call   1003e0 <cons_putc>
  100890:	8b 55 08             	mov    0x8(%ebp),%edx
  100893:	e9 68 ff ff ff       	jmp    100800 <cprintf+0x40>
      break;
    
    case '%':
      switch(c){
  100898:	83 f8 73             	cmp    $0x73,%eax
  10089b:	74 33                	je     1008d0 <cprintf+0x110>
  10089d:	83 f8 78             	cmp    $0x78,%eax
  1008a0:	75 9c                	jne    10083e <cprintf+0x7e>
      case 'd':
        printint(*argp++, 10, 1);
        break;
      case 'x':
      case 'p':
        printint(*argp++, 16, 0);
  1008a2:	8b 07                	mov    (%edi),%eax
  1008a4:	31 f6                	xor    %esi,%esi
  1008a6:	83 c7 04             	add    $0x4,%edi
  1008a9:	c7 44 24 08 00 00 00 	movl   $0x0,0x8(%esp)
  1008b0:	00 
  1008b1:	c7 44 24 04 10 00 00 	movl   $0x10,0x4(%esp)
  1008b8:	00 
  1008b9:	89 04 24             	mov    %eax,(%esp)
  1008bc:	e8 7f fe ff ff       	call   100740 <printint>
  1008c1:	8b 55 08             	mov    0x8(%ebp),%edx
        break;
  1008c4:	e9 37 ff ff ff       	jmp    100800 <cprintf+0x40>
  1008c9:	8d b4 26 00 00 00 00 	lea    0x0(%esi,%eiz,1),%esi
      case 's':
        s = (char*)*argp++;
  1008d0:	8b 37                	mov    (%edi),%esi
  1008d2:	83 c7 04             	add    $0x4,%edi
        if(s == 0)
  1008d5:	85 f6                	test   %esi,%esi
  1008d7:	74 78                	je     100951 <cprintf+0x191>
          s = "(null)";
        for(; *s; s++)
  1008d9:	0f b6 06             	movzbl (%esi),%eax
  1008dc:	84 c0                	test   %al,%al
  1008de:	74 18                	je     1008f8 <cprintf+0x138>
          cons_putc(*s);
  1008e0:	0f be c0             	movsbl %al,%eax
        break;
      case 's':
        s = (char*)*argp++;
        if(s == 0)
          s = "(null)";
        for(; *s; s++)
  1008e3:	83 c6 01             	add    $0x1,%esi
          cons_putc(*s);
  1008e6:	89 04 24             	mov    %eax,(%esp)
  1008e9:	e8 f2 fa ff ff       	call   1003e0 <cons_putc>
        break;
      case 's':
        s = (char*)*argp++;
        if(s == 0)
          s = "(null)";
        for(; *s; s++)
  1008ee:	0f b6 06             	movzbl (%esi),%eax
  1008f1:	84 c0                	test   %al,%al
  1008f3:	75 eb                	jne    1008e0 <cprintf+0x120>
  1008f5:	8b 55 08             	mov    0x8(%ebp),%edx
        cons_putc('%');
        break;
      default:
        // Print unknown % sequence to draw attention.
        cons_putc('%');
        cons_putc(c);
  1008f8:	31 f6                	xor    %esi,%esi
  1008fa:	e9 01 ff ff ff       	jmp    100800 <cprintf+0x40>
  1008ff:	90                   	nop
      break;
    
    case '%':
      switch(c){
      case 'd':
        printint(*argp++, 10, 1);
  100900:	8b 07                	mov    (%edi),%eax
  100902:	31 f6                	xor    %esi,%esi
  100904:	83 c7 04             	add    $0x4,%edi
  100907:	c7 44 24 08 01 00 00 	movl   $0x1,0x8(%esp)
  10090e:	00 
  10090f:	c7 44 24 04 0a 00 00 	movl   $0xa,0x4(%esp)
  100916:	00 
  100917:	89 04 24             	mov    %eax,(%esp)
  10091a:	e8 21 fe ff ff       	call   100740 <printint>
  10091f:	8b 55 08             	mov    0x8(%ebp),%edx
        break;
  100922:	e9 d9 fe ff ff       	jmp    100800 <cprintf+0x40>
  100927:	90                   	nop
          s = "(null)";
        for(; *s; s++)
          cons_putc(*s);
        break;
      case '%':
        cons_putc('%');
  100928:	c7 04 24 25 00 00 00 	movl   $0x25,(%esp)
  10092f:	31 f6                	xor    %esi,%esi
  100931:	e8 aa fa ff ff       	call   1003e0 <cons_putc>
  100936:	8b 55 08             	mov    0x8(%ebp),%edx
        break;
  100939:	e9 c2 fe ff ff       	jmp    100800 <cprintf+0x40>
  10093e:	66 90                	xchg   %ax,%ax
  uint *argp;
  char *s;

  locking = use_console_lock;
  if(locking)
    acquire(&console_lock);
  100940:	c7 04 24 40 88 10 00 	movl   $0x108840,(%esp)
  100947:	e8 e4 3d 00 00       	call   104730 <acquire>
  10094c:	e9 88 fe ff ff       	jmp    1007d9 <cprintf+0x19>
      case 'p':
        printint(*argp++, 16, 0);
        break;
      case 's':
        s = (char*)*argp++;
        if(s == 0)
  100951:	be 1f 69 10 00       	mov    $0x10691f,%esi
  100956:	eb 81                	jmp    1008d9 <cprintf+0x119>
  100958:	90                   	nop
  100959:	8d b4 26 00 00 00 00 	lea    0x0(%esi,%eiz,1),%esi

00100960 <panic>:
  ioapic_enable(IRQ_KBD, 0);
}

void
panic(char *s)
{
  100960:	55                   	push   %ebp
  100961:	89 e5                	mov    %esp,%ebp
  100963:	56                   	push   %esi
  100964:	53                   	push   %ebx
  100965:	83 ec 40             	sub    $0x40,%esp
  int i;
  uint pcs[10];
  
  __asm __volatile("cli");
  use_console_lock = 0;
  100968:	c7 05 24 88 10 00 00 	movl   $0x0,0x108824
  10096f:	00 00 00 
panic(char *s)
{
  int i;
  uint pcs[10];
  
  __asm __volatile("cli");
  100972:	fa                   	cli    
  use_console_lock = 0;
  cprintf("cpu%d: panic: ", cpu());
  100973:	e8 e8 21 00 00       	call   102b60 <cpu>
  cprintf(s);
  cprintf("\n");
  getcallerpcs(&s, pcs);
  100978:	8d 75 d0             	lea    -0x30(%ebp),%esi
  10097b:	31 db                	xor    %ebx,%ebx
  int i;
  uint pcs[10];
  
  __asm __volatile("cli");
  use_console_lock = 0;
  cprintf("cpu%d: panic: ", cpu());
  10097d:	c7 04 24 26 69 10 00 	movl   $0x106926,(%esp)
  100984:	89 44 24 04          	mov    %eax,0x4(%esp)
  100988:	e8 33 fe ff ff       	call   1007c0 <cprintf>
  cprintf(s);
  10098d:	8b 45 08             	mov    0x8(%ebp),%eax
  100990:	89 04 24             	mov    %eax,(%esp)
  100993:	e8 28 fe ff ff       	call   1007c0 <cprintf>
  cprintf("\n");
  100998:	c7 04 24 93 6d 10 00 	movl   $0x106d93,(%esp)
  10099f:	e8 1c fe ff ff       	call   1007c0 <cprintf>
  getcallerpcs(&s, pcs);
  1009a4:	8d 45 08             	lea    0x8(%ebp),%eax
  1009a7:	89 74 24 04          	mov    %esi,0x4(%esp)
  1009ab:	89 04 24             	mov    %eax,(%esp)
  1009ae:	e8 dd 3b 00 00       	call   104590 <getcallerpcs>
  1009b3:	90                   	nop
  1009b4:	8d 74 26 00          	lea    0x0(%esi,%eiz,1),%esi
  for(i=0; i<10; i++)
    cprintf(" %p", pcs[i]);
  1009b8:	8b 04 9e             	mov    (%esi,%ebx,4),%eax
  use_console_lock = 0;
  cprintf("cpu%d: panic: ", cpu());
  cprintf(s);
  cprintf("\n");
  getcallerpcs(&s, pcs);
  for(i=0; i<10; i++)
  1009bb:	83 c3 01             	add    $0x1,%ebx
    cprintf(" %p", pcs[i]);
  1009be:	c7 04 24 35 69 10 00 	movl   $0x106935,(%esp)
  1009c5:	89 44 24 04          	mov    %eax,0x4(%esp)
  1009c9:	e8 f2 fd ff ff       	call   1007c0 <cprintf>
  use_console_lock = 0;
  cprintf("cpu%d: panic: ", cpu());
  cprintf(s);
  cprintf("\n");
  getcallerpcs(&s, pcs);
  for(i=0; i<10; i++)
  1009ce:	83 fb 0a             	cmp    $0xa,%ebx
  1009d1:	75 e5                	jne    1009b8 <panic+0x58>
    cprintf(" %p", pcs[i]);
  panicked = 1; // freeze other CPU
  1009d3:	c7 05 20 88 10 00 01 	movl   $0x1,0x108820
  1009da:	00 00 00 
  1009dd:	eb fe                	jmp    1009dd <panic+0x7d>
  1009df:	90                   	nop

001009e0 <exec>:
#include "x86.h"
#include "elf.h"

int
exec(char *path, char **argv)
{
  1009e0:	55                   	push   %ebp
  1009e1:	89 e5                	mov    %esp,%ebp
  1009e3:	57                   	push   %edi
  1009e4:	56                   	push   %esi
  1009e5:	53                   	push   %ebx
  1009e6:	81 ec 9c 00 00 00    	sub    $0x9c,%esp
  uint sz, sp, argp;
  struct elfhdr elf;
  struct inode *ip;
  struct proghdr ph;

  if((ip = namei(path)) == 0)
  1009ec:	8b 45 08             	mov    0x8(%ebp),%eax
  1009ef:	89 04 24             	mov    %eax,(%esp)
  1009f2:	e8 09 18 00 00       	call   102200 <namei>
  1009f7:	89 c3                	mov    %eax,%ebx
  1009f9:	b8 ff ff ff ff       	mov    $0xffffffff,%eax
  1009fe:	85 db                	test   %ebx,%ebx
  100a00:	0f 84 81 03 00 00    	je     100d87 <exec+0x3a7>
    return -1;
  ilock(ip);
  100a06:	89 1c 24             	mov    %ebx,(%esp)
  100a09:	e8 32 15 00 00       	call   101f40 <ilock>
  // Compute memory size of new process.
  mem = 0;
  sz = 0;

  // Program segments.
  if(readi(ip, (char*)&elf, 0, sizeof(elf)) < sizeof(elf))
  100a0e:	8d 45 94             	lea    -0x6c(%ebp),%eax
  100a11:	c7 44 24 0c 34 00 00 	movl   $0x34,0xc(%esp)
  100a18:	00 
  100a19:	c7 44 24 08 00 00 00 	movl   $0x0,0x8(%esp)
  100a20:	00 
  100a21:	89 44 24 04          	mov    %eax,0x4(%esp)
  100a25:	89 1c 24             	mov    %ebx,(%esp)
  100a28:	e8 e3 0b 00 00       	call   101610 <readi>
  100a2d:	83 f8 33             	cmp    $0x33,%eax
  100a30:	0f 86 74 03 00 00    	jbe    100daa <exec+0x3ca>
    goto bad;
  if(elf.magic != ELF_MAGIC)
  100a36:	81 7d 94 7f 45 4c 46 	cmpl   $0x464c457f,-0x6c(%ebp)
  100a3d:	0f 85 67 03 00 00    	jne    100daa <exec+0x3ca>
    goto bad;
  for(i=0, off=elf.phoff; i<elf.phnum; i++, off+=sizeof(ph)){
  100a43:	66 83 7d c0 00       	cmpw   $0x0,-0x40(%ebp)
  100a48:	bf ff 1f 00 00       	mov    $0x1fff,%edi
  100a4d:	8b 45 b0             	mov    -0x50(%ebp),%eax
  100a50:	74 6b                	je     100abd <exec+0xdd>
  100a52:	89 c7                	mov    %eax,%edi
  100a54:	31 f6                	xor    %esi,%esi
  100a56:	c7 45 84 00 00 00 00 	movl   $0x0,-0x7c(%ebp)
  100a5d:	eb 0f                	jmp    100a6e <exec+0x8e>
  100a5f:	90                   	nop
  100a60:	0f b7 45 c0          	movzwl -0x40(%ebp),%eax
  100a64:	83 c6 01             	add    $0x1,%esi
  100a67:	39 f0                	cmp    %esi,%eax
  100a69:	7e 49                	jle    100ab4 <exec+0xd4>
  100a6b:	83 c7 20             	add    $0x20,%edi
    if(readi(ip, (char*)&ph, off, sizeof(ph)) != sizeof(ph))
  100a6e:	8d 55 c8             	lea    -0x38(%ebp),%edx
  100a71:	c7 44 24 0c 20 00 00 	movl   $0x20,0xc(%esp)
  100a78:	00 
  100a79:	89 7c 24 08          	mov    %edi,0x8(%esp)
  100a7d:	89 54 24 04          	mov    %edx,0x4(%esp)
  100a81:	89 1c 24             	mov    %ebx,(%esp)
  100a84:	e8 87 0b 00 00       	call   101610 <readi>
  100a89:	83 f8 20             	cmp    $0x20,%eax
  100a8c:	0f 85 18 03 00 00    	jne    100daa <exec+0x3ca>
      goto bad;
    if(ph.type != ELF_PROG_LOAD)
  100a92:	83 7d c8 01          	cmpl   $0x1,-0x38(%ebp)
  100a96:	75 c8                	jne    100a60 <exec+0x80>
      continue;
    if(ph.memsz < ph.filesz)
  100a98:	8b 45 dc             	mov    -0x24(%ebp),%eax
  100a9b:	3b 45 d8             	cmp    -0x28(%ebp),%eax
  100a9e:	66 90                	xchg   %ax,%ax
  100aa0:	0f 82 04 03 00 00    	jb     100daa <exec+0x3ca>
      goto bad;
    sz += ph.memsz;
  100aa6:	01 45 84             	add    %eax,-0x7c(%ebp)
  // Program segments.
  if(readi(ip, (char*)&elf, 0, sizeof(elf)) < sizeof(elf))
    goto bad;
  if(elf.magic != ELF_MAGIC)
    goto bad;
  for(i=0, off=elf.phoff; i<elf.phnum; i++, off+=sizeof(ph)){
  100aa9:	83 c6 01             	add    $0x1,%esi
  100aac:	0f b7 45 c0          	movzwl -0x40(%ebp),%eax
  100ab0:	39 f0                	cmp    %esi,%eax
  100ab2:	7f b7                	jg     100a6b <exec+0x8b>
  100ab4:	8b 7d 84             	mov    -0x7c(%ebp),%edi
  100ab7:	81 c7 ff 1f 00 00    	add    $0x1fff,%edi
    sz += ph.memsz;
  }
  
  // Arguments.
  arglen = 0;
  for(argc=0; argv[argc]; argc++)
  100abd:	8b 4d 0c             	mov    0xc(%ebp),%ecx
  100ac0:	31 f6                	xor    %esi,%esi
  100ac2:	c7 85 78 ff ff ff 00 	movl   $0x0,-0x88(%ebp)
  100ac9:	00 00 00 
  100acc:	8b 11                	mov    (%ecx),%edx
  100ace:	85 d2                	test   %edx,%edx
  100ad0:	0f 84 ec 02 00 00    	je     100dc2 <exec+0x3e2>
  100ad6:	89 7d 84             	mov    %edi,-0x7c(%ebp)
  100ad9:	8b 7d 0c             	mov    0xc(%ebp),%edi
  100adc:	89 5d 80             	mov    %ebx,-0x80(%ebp)
  100adf:	8b 9d 78 ff ff ff    	mov    -0x88(%ebp),%ebx
  100ae5:	8d 76 00             	lea    0x0(%esi),%esi
    arglen += strlen(argv[argc]) + 1;
  100ae8:	89 14 24             	mov    %edx,(%esp)
    sz += ph.memsz;
  }
  
  // Arguments.
  arglen = 0;
  for(argc=0; argv[argc]; argc++)
  100aeb:	83 c3 01             	add    $0x1,%ebx
    arglen += strlen(argv[argc]) + 1;
  100aee:	e8 8d 3e 00 00       	call   104980 <strlen>
    sz += ph.memsz;
  }
  
  // Arguments.
  arglen = 0;
  for(argc=0; argv[argc]; argc++)
  100af3:	8b 14 9f             	mov    (%edi,%ebx,4),%edx
  100af6:	89 d9                	mov    %ebx,%ecx
    arglen += strlen(argv[argc]) + 1;
  100af8:	01 f0                	add    %esi,%eax
    sz += ph.memsz;
  }
  
  // Arguments.
  arglen = 0;
  for(argc=0; argv[argc]; argc++)
  100afa:	85 d2                	test   %edx,%edx
    arglen += strlen(argv[argc]) + 1;
  100afc:	8d 70 01             	lea    0x1(%eax),%esi
    sz += ph.memsz;
  }
  
  // Arguments.
  arglen = 0;
  for(argc=0; argv[argc]; argc++)
  100aff:	75 e7                	jne    100ae8 <exec+0x108>
  100b01:	89 9d 78 ff ff ff    	mov    %ebx,-0x88(%ebp)
  100b07:	8b 7d 84             	mov    -0x7c(%ebp),%edi
  100b0a:	83 c0 04             	add    $0x4,%eax
  100b0d:	8b 5d 80             	mov    -0x80(%ebp),%ebx
  100b10:	83 e0 fc             	and    $0xfffffffc,%eax
  100b13:	89 85 7c ff ff ff    	mov    %eax,-0x84(%ebp)
  100b19:	8d 44 88 04          	lea    0x4(%eax,%ecx,4),%eax
  100b1d:	89 8d 74 ff ff ff    	mov    %ecx,-0x8c(%ebp)

  // Stack.
  sz += PAGE;
  
  // Allocate program memory.
  sz = (sz+PAGE-1) & ~(PAGE-1);
  100b23:	8d 3c 38             	lea    (%eax,%edi,1),%edi
  100b26:	89 7d 80             	mov    %edi,-0x80(%ebp)
  100b29:	81 65 80 00 f0 ff ff 	andl   $0xfffff000,-0x80(%ebp)
  mem = kalloc(sz);
  100b30:	8b 4d 80             	mov    -0x80(%ebp),%ecx
  100b33:	89 0c 24             	mov    %ecx,(%esp)
  100b36:	e8 95 1a 00 00       	call   1025d0 <kalloc>
  if(mem == 0)
  100b3b:	85 c0                	test   %eax,%eax
  // Stack.
  sz += PAGE;
  
  // Allocate program memory.
  sz = (sz+PAGE-1) & ~(PAGE-1);
  mem = kalloc(sz);
  100b3d:	89 45 84             	mov    %eax,-0x7c(%ebp)
  if(mem == 0)
  100b40:	0f 84 64 02 00 00    	je     100daa <exec+0x3ca>
    goto bad;
  memset(mem, 0, sz);
  100b46:	8b 45 80             	mov    -0x80(%ebp),%eax
  100b49:	c7 44 24 04 00 00 00 	movl   $0x0,0x4(%esp)
  100b50:	00 
  100b51:	89 44 24 08          	mov    %eax,0x8(%esp)
  100b55:	8b 55 84             	mov    -0x7c(%ebp),%edx
  100b58:	89 14 24             	mov    %edx,(%esp)
  100b5b:	e8 40 3c 00 00       	call   1047a0 <memset>

  // Load program into memory.
  for(i=0, off=elf.phoff; i<elf.phnum; i++, off+=sizeof(ph)){
  100b60:	8b 7d b0             	mov    -0x50(%ebp),%edi
  100b63:	66 83 7d c0 00       	cmpw   $0x0,-0x40(%ebp)
  100b68:	0f 84 ab 00 00 00    	je     100c19 <exec+0x239>
  100b6e:	31 f6                	xor    %esi,%esi
  100b70:	eb 18                	jmp    100b8a <exec+0x1aa>
  100b72:	8d b6 00 00 00 00    	lea    0x0(%esi),%esi
  100b78:	0f b7 45 c0          	movzwl -0x40(%ebp),%eax
  100b7c:	83 c6 01             	add    $0x1,%esi
  100b7f:	39 f0                	cmp    %esi,%eax
  100b81:	0f 8e 92 00 00 00    	jle    100c19 <exec+0x239>
  100b87:	83 c7 20             	add    $0x20,%edi
    if(readi(ip, (char*)&ph, off, sizeof(ph)) != sizeof(ph))
  100b8a:	8d 4d c8             	lea    -0x38(%ebp),%ecx
  100b8d:	c7 44 24 0c 20 00 00 	movl   $0x20,0xc(%esp)
  100b94:	00 
  100b95:	89 7c 24 08          	mov    %edi,0x8(%esp)
  100b99:	89 4c 24 04          	mov    %ecx,0x4(%esp)
  100b9d:	89 1c 24             	mov    %ebx,(%esp)
  100ba0:	e8 6b 0a 00 00       	call   101610 <readi>
  100ba5:	83 f8 20             	cmp    $0x20,%eax
  100ba8:	0f 85 ea 01 00 00    	jne    100d98 <exec+0x3b8>
      goto bad;
    if(ph.type != ELF_PROG_LOAD)
  100bae:	83 7d c8 01          	cmpl   $0x1,-0x38(%ebp)
  100bb2:	75 c4                	jne    100b78 <exec+0x198>
      continue;
    if(ph.va + ph.memsz > sz)
  100bb4:	8b 45 d0             	mov    -0x30(%ebp),%eax
  100bb7:	8b 55 dc             	mov    -0x24(%ebp),%edx
  100bba:	01 c2                	add    %eax,%edx
  100bbc:	39 55 80             	cmp    %edx,-0x80(%ebp)
  100bbf:	0f 82 d3 01 00 00    	jb     100d98 <exec+0x3b8>
      goto bad;
    if(readi(ip, mem + ph.va, ph.offset, ph.filesz) != ph.filesz)
  100bc5:	8b 55 d8             	mov    -0x28(%ebp),%edx
  100bc8:	89 54 24 0c          	mov    %edx,0xc(%esp)
  100bcc:	8b 55 cc             	mov    -0x34(%ebp),%edx
  100bcf:	89 54 24 08          	mov    %edx,0x8(%esp)
  100bd3:	03 45 84             	add    -0x7c(%ebp),%eax
  100bd6:	89 1c 24             	mov    %ebx,(%esp)
  100bd9:	89 44 24 04          	mov    %eax,0x4(%esp)
  100bdd:	e8 2e 0a 00 00       	call   101610 <readi>
  100be2:	3b 45 d8             	cmp    -0x28(%ebp),%eax
  100be5:	0f 85 ad 01 00 00    	jne    100d98 <exec+0x3b8>
      goto bad;
    memset(mem + ph.va + ph.filesz, 0, ph.memsz - ph.filesz);
  100beb:	8b 55 dc             	mov    -0x24(%ebp),%edx
  if(mem == 0)
    goto bad;
  memset(mem, 0, sz);

  // Load program into memory.
  for(i=0, off=elf.phoff; i<elf.phnum; i++, off+=sizeof(ph)){
  100bee:	83 c6 01             	add    $0x1,%esi
      continue;
    if(ph.va + ph.memsz > sz)
      goto bad;
    if(readi(ip, mem + ph.va, ph.offset, ph.filesz) != ph.filesz)
      goto bad;
    memset(mem + ph.va + ph.filesz, 0, ph.memsz - ph.filesz);
  100bf1:	c7 44 24 04 00 00 00 	movl   $0x0,0x4(%esp)
  100bf8:	00 
  100bf9:	29 c2                	sub    %eax,%edx
  100bfb:	89 54 24 08          	mov    %edx,0x8(%esp)
  100bff:	03 45 d0             	add    -0x30(%ebp),%eax
  100c02:	03 45 84             	add    -0x7c(%ebp),%eax
  100c05:	89 04 24             	mov    %eax,(%esp)
  100c08:	e8 93 3b 00 00       	call   1047a0 <memset>
  if(mem == 0)
    goto bad;
  memset(mem, 0, sz);

  // Load program into memory.
  for(i=0, off=elf.phoff; i<elf.phnum; i++, off+=sizeof(ph)){
  100c0d:	0f b7 45 c0          	movzwl -0x40(%ebp),%eax
  100c11:	39 f0                	cmp    %esi,%eax
  100c13:	0f 8f 6e ff ff ff    	jg     100b87 <exec+0x1a7>
      goto bad;
    if(readi(ip, mem + ph.va, ph.offset, ph.filesz) != ph.filesz)
      goto bad;
    memset(mem + ph.va + ph.filesz, 0, ph.memsz - ph.filesz);
  }
  iunlockput(ip);
  100c19:	89 1c 24             	mov    %ebx,(%esp)
  100c1c:	e8 ff 12 00 00       	call   101f20 <iunlockput>
  
  // Initialize stack.
  sp = sz;
  argp = sz - arglen - 4*(argc+1);
  100c21:	8b 85 78 ff ff ff    	mov    -0x88(%ebp),%eax
  100c27:	8b 55 80             	mov    -0x80(%ebp),%edx
  100c2a:	2b 95 7c ff ff ff    	sub    -0x84(%ebp),%edx

  // Copy argv strings and pointers to stack.
  *(uint*)(mem+argp + 4*argc) = 0;  // argv[argc]
  100c30:	8b 4d 84             	mov    -0x7c(%ebp),%ecx
  }
  iunlockput(ip);
  
  // Initialize stack.
  sp = sz;
  argp = sz - arglen - 4*(argc+1);
  100c33:	f7 d0                	not    %eax
  100c35:	8d 04 82             	lea    (%edx,%eax,4),%eax

  // Copy argv strings and pointers to stack.
  *(uint*)(mem+argp + 4*argc) = 0;  // argv[argc]
  100c38:	8b 95 78 ff ff ff    	mov    -0x88(%ebp),%edx
  }
  iunlockput(ip);
  
  // Initialize stack.
  sp = sz;
  argp = sz - arglen - 4*(argc+1);
  100c3e:	89 85 7c ff ff ff    	mov    %eax,-0x84(%ebp)

  // Copy argv strings and pointers to stack.
  *(uint*)(mem+argp + 4*argc) = 0;  // argv[argc]
  for(i=argc-1; i>=0; i--){
  100c44:	89 d7                	mov    %edx,%edi
  100c46:	83 ef 01             	sub    $0x1,%edi
  // Initialize stack.
  sp = sz;
  argp = sz - arglen - 4*(argc+1);

  // Copy argv strings and pointers to stack.
  *(uint*)(mem+argp + 4*argc) = 0;  // argv[argc]
  100c49:	8d 04 90             	lea    (%eax,%edx,4),%eax
  for(i=argc-1; i>=0; i--){
  100c4c:	83 ff ff             	cmp    $0xffffffff,%edi
  // Initialize stack.
  sp = sz;
  argp = sz - arglen - 4*(argc+1);

  // Copy argv strings and pointers to stack.
  *(uint*)(mem+argp + 4*argc) = 0;  // argv[argc]
  100c4f:	c7 04 08 00 00 00 00 	movl   $0x0,(%eax,%ecx,1)
  for(i=argc-1; i>=0; i--){
  100c56:	74 62                	je     100cba <exec+0x2da>
  100c58:	8b 75 0c             	mov    0xc(%ebp),%esi
  100c5b:	8d 04 bd 00 00 00 00 	lea    0x0(,%edi,4),%eax
  100c62:	89 ca                	mov    %ecx,%edx
  100c64:	8b 5d 80             	mov    -0x80(%ebp),%ebx
  100c67:	01 c6                	add    %eax,%esi
  100c69:	03 85 7c ff ff ff    	add    -0x84(%ebp),%eax
  100c6f:	01 c2                	add    %eax,%edx
  100c71:	8d b4 26 00 00 00 00 	lea    0x0(%esi,%eiz,1),%esi
    len = strlen(argv[i]) + 1;
  100c78:	8b 06                	mov    (%esi),%eax
  sp = sz;
  argp = sz - arglen - 4*(argc+1);

  // Copy argv strings and pointers to stack.
  *(uint*)(mem+argp + 4*argc) = 0;  // argv[argc]
  for(i=argc-1; i>=0; i--){
  100c7a:	83 ef 01             	sub    $0x1,%edi
    len = strlen(argv[i]) + 1;
  100c7d:	89 04 24             	mov    %eax,(%esp)
  100c80:	89 95 70 ff ff ff    	mov    %edx,-0x90(%ebp)
  100c86:	e8 f5 3c 00 00       	call   104980 <strlen>
    sp -= len;
  100c8b:	83 c0 01             	add    $0x1,%eax
  100c8e:	29 c3                	sub    %eax,%ebx
    memmove(mem+sp, argv[i], len);
  100c90:	89 44 24 08          	mov    %eax,0x8(%esp)
  100c94:	8b 06                	mov    (%esi),%eax
  sp = sz;
  argp = sz - arglen - 4*(argc+1);

  // Copy argv strings and pointers to stack.
  *(uint*)(mem+argp + 4*argc) = 0;  // argv[argc]
  for(i=argc-1; i>=0; i--){
  100c96:	83 ee 04             	sub    $0x4,%esi
    len = strlen(argv[i]) + 1;
    sp -= len;
    memmove(mem+sp, argv[i], len);
  100c99:	89 44 24 04          	mov    %eax,0x4(%esp)
  100c9d:	8b 45 84             	mov    -0x7c(%ebp),%eax
  100ca0:	01 d8                	add    %ebx,%eax
  100ca2:	89 04 24             	mov    %eax,(%esp)
  100ca5:	e8 86 3b 00 00       	call   104830 <memmove>
    *(uint*)(mem+argp + 4*i) = sp;  // argv[i]
  100caa:	8b 95 70 ff ff ff    	mov    -0x90(%ebp),%edx
  100cb0:	89 1a                	mov    %ebx,(%edx)
  sp = sz;
  argp = sz - arglen - 4*(argc+1);

  // Copy argv strings and pointers to stack.
  *(uint*)(mem+argp + 4*argc) = 0;  // argv[argc]
  for(i=argc-1; i>=0; i--){
  100cb2:	83 ea 04             	sub    $0x4,%edx
  100cb5:	83 ff ff             	cmp    $0xffffffff,%edi
  100cb8:	75 be                	jne    100c78 <exec+0x298>
  }

  // Stack frame for main(argc, argv), below arguments.
  sp = argp;
  sp -= 4;
  *(uint*)(mem+sp) = argp;
  100cba:	8b 85 7c ff ff ff    	mov    -0x84(%ebp),%eax
  100cc0:	8b 55 84             	mov    -0x7c(%ebp),%edx
  sp -= 4;
  *(uint*)(mem+sp) = argc;
  100cc3:	8b 8d 74 ff ff ff    	mov    -0x8c(%ebp),%ecx
  sp -= 4;
  100cc9:	89 c6                	mov    %eax,%esi
  }

  // Stack frame for main(argc, argv), below arguments.
  sp = argp;
  sp -= 4;
  *(uint*)(mem+sp) = argp;
  100ccb:	89 44 02 fc          	mov    %eax,-0x4(%edx,%eax,1)
  sp -= 4;
  *(uint*)(mem+sp) = argc;
  sp -= 4;
  100ccf:	83 ee 0c             	sub    $0xc,%esi
  // Stack frame for main(argc, argv), below arguments.
  sp = argp;
  sp -= 4;
  *(uint*)(mem+sp) = argp;
  sp -= 4;
  *(uint*)(mem+sp) = argc;
  100cd2:	89 4c 02 f8          	mov    %ecx,-0x8(%edx,%eax,1)
  sp -= 4;
  *(uint*)(mem+sp) = 0xffffffff;   // fake return pc
  100cd6:	c7 44 02 f4 ff ff ff 	movl   $0xffffffff,-0xc(%edx,%eax,1)
  100cdd:	ff 

  // Save program name for debugging.
  for(last=s=path; *s; s++)
  100cde:	8b 45 08             	mov    0x8(%ebp),%eax
  100ce1:	0f b6 10             	movzbl (%eax),%edx
  100ce4:	89 c3                	mov    %eax,%ebx
  100ce6:	84 d2                	test   %dl,%dl
  100ce8:	74 21                	je     100d0b <exec+0x32b>
  100cea:	83 c0 01             	add    $0x1,%eax
  100ced:	eb 0b                	jmp    100cfa <exec+0x31a>
  100cef:	90                   	nop
  100cf0:	0f b6 10             	movzbl (%eax),%edx
  100cf3:	83 c0 01             	add    $0x1,%eax
  100cf6:	84 d2                	test   %dl,%dl
  100cf8:	74 11                	je     100d0b <exec+0x32b>
    if(*s == '/')
  100cfa:	80 fa 2f             	cmp    $0x2f,%dl
  100cfd:	75 f1                	jne    100cf0 <exec+0x310>
  *(uint*)(mem+sp) = argc;
  sp -= 4;
  *(uint*)(mem+sp) = 0xffffffff;   // fake return pc

  // Save program name for debugging.
  for(last=s=path; *s; s++)
  100cff:	0f b6 10             	movzbl (%eax),%edx
    if(*s == '/')
  100d02:	89 c3                	mov    %eax,%ebx
  *(uint*)(mem+sp) = argc;
  sp -= 4;
  *(uint*)(mem+sp) = 0xffffffff;   // fake return pc

  // Save program name for debugging.
  for(last=s=path; *s; s++)
  100d04:	83 c0 01             	add    $0x1,%eax
  100d07:	84 d2                	test   %dl,%dl
  100d09:	75 ef                	jne    100cfa <exec+0x31a>
    if(*s == '/')
      last = s+1;
  safestrcpy(cp->name, last, sizeof(cp->name));
  100d0b:	e8 e0 29 00 00       	call   1036f0 <curproc>
  100d10:	89 5c 24 04          	mov    %ebx,0x4(%esp)
  100d14:	c7 44 24 08 10 00 00 	movl   $0x10,0x8(%esp)
  100d1b:	00 
  100d1c:	05 88 00 00 00       	add    $0x88,%eax
  100d21:	89 04 24             	mov    %eax,(%esp)
  100d24:	e8 17 3c 00 00       	call   104940 <safestrcpy>

  // Commit to the new image.
  kfree(cp->mem, cp->sz);
  100d29:	e8 c2 29 00 00       	call   1036f0 <curproc>
  100d2e:	8b 58 04             	mov    0x4(%eax),%ebx
  100d31:	e8 ba 29 00 00       	call   1036f0 <curproc>
  100d36:	89 5c 24 04          	mov    %ebx,0x4(%esp)
  100d3a:	8b 00                	mov    (%eax),%eax
  100d3c:	89 04 24             	mov    %eax,(%esp)
  100d3f:	e8 4c 19 00 00       	call   102690 <kfree>
  cp->mem = mem;
  100d44:	e8 a7 29 00 00       	call   1036f0 <curproc>
  100d49:	8b 55 84             	mov    -0x7c(%ebp),%edx
  100d4c:	89 10                	mov    %edx,(%eax)
  cp->sz = sz;
  100d4e:	e8 9d 29 00 00       	call   1036f0 <curproc>
  100d53:	8b 4d 80             	mov    -0x80(%ebp),%ecx
  100d56:	89 48 04             	mov    %ecx,0x4(%eax)
  cp->tf->eip = elf.entry;  // main
  100d59:	e8 92 29 00 00       	call   1036f0 <curproc>
  100d5e:	8b 55 ac             	mov    -0x54(%ebp),%edx
  100d61:	8b 80 84 00 00 00    	mov    0x84(%eax),%eax
  100d67:	89 50 30             	mov    %edx,0x30(%eax)
  cp->tf->esp = sp;
  100d6a:	e8 81 29 00 00       	call   1036f0 <curproc>
  100d6f:	8b 80 84 00 00 00    	mov    0x84(%eax),%eax
  100d75:	89 70 3c             	mov    %esi,0x3c(%eax)
  setupsegs(cp);
  100d78:	e8 73 29 00 00       	call   1036f0 <curproc>
  100d7d:	89 04 24             	mov    %eax,(%esp)
  100d80:	e8 3b 2f 00 00       	call   103cc0 <setupsegs>
  100d85:	31 c0                	xor    %eax,%eax
 bad:
  if(mem)
    kfree(mem, sz);
  iunlockput(ip);
  return -1;
}
  100d87:	81 c4 9c 00 00 00    	add    $0x9c,%esp
  100d8d:	5b                   	pop    %ebx
  100d8e:	5e                   	pop    %esi
  100d8f:	5f                   	pop    %edi
  100d90:	5d                   	pop    %ebp
  100d91:	c3                   	ret    
  100d92:	8d b6 00 00 00 00    	lea    0x0(%esi),%esi
  setupsegs(cp);
  return 0;

 bad:
  if(mem)
    kfree(mem, sz);
  100d98:	8b 45 80             	mov    -0x80(%ebp),%eax
  100d9b:	89 44 24 04          	mov    %eax,0x4(%esp)
  100d9f:	8b 55 84             	mov    -0x7c(%ebp),%edx
  100da2:	89 14 24             	mov    %edx,(%esp)
  100da5:	e8 e6 18 00 00       	call   102690 <kfree>
  iunlockput(ip);
  100daa:	89 1c 24             	mov    %ebx,(%esp)
  100dad:	e8 6e 11 00 00       	call   101f20 <iunlockput>
  return -1;
}
  100db2:	81 c4 9c 00 00 00    	add    $0x9c,%esp
  return 0;

 bad:
  if(mem)
    kfree(mem, sz);
  iunlockput(ip);
  100db8:	b8 ff ff ff ff       	mov    $0xffffffff,%eax
  return -1;
}
  100dbd:	5b                   	pop    %ebx
  100dbe:	5e                   	pop    %esi
  100dbf:	5f                   	pop    %edi
  100dc0:	5d                   	pop    %ebp
  100dc1:	c3                   	ret    
    sz += ph.memsz;
  }
  
  // Arguments.
  arglen = 0;
  for(argc=0; argv[argc]; argc++)
  100dc2:	b8 04 00 00 00       	mov    $0x4,%eax
  100dc7:	c7 85 7c ff ff ff 00 	movl   $0x0,-0x84(%ebp)
  100dce:	00 00 00 
  100dd1:	c7 85 74 ff ff ff 00 	movl   $0x0,-0x8c(%ebp)
  100dd8:	00 00 00 
  100ddb:	e9 43 fd ff ff       	jmp    100b23 <exec+0x143>

00100de0 <filewrite>:
}

// Write to file f.  Addr is kernel address.
int
filewrite(struct file *f, char *addr, int n)
{
  100de0:	55                   	push   %ebp
  100de1:	89 e5                	mov    %esp,%ebp
  100de3:	83 ec 38             	sub    $0x38,%esp
  100de6:	89 5d f4             	mov    %ebx,-0xc(%ebp)
  100de9:	8b 5d 08             	mov    0x8(%ebp),%ebx
  100dec:	89 75 f8             	mov    %esi,-0x8(%ebp)
  100def:	8b 75 0c             	mov    0xc(%ebp),%esi
  100df2:	89 7d fc             	mov    %edi,-0x4(%ebp)
  100df5:	8b 7d 10             	mov    0x10(%ebp),%edi
  int r;

  if(f->writable == 0)
  100df8:	80 7b 09 00          	cmpb   $0x0,0x9(%ebx)
  100dfc:	74 5a                	je     100e58 <filewrite+0x78>
    return -1;
  if(f->type == FD_PIPE)
  100dfe:	8b 03                	mov    (%ebx),%eax
  100e00:	83 f8 02             	cmp    $0x2,%eax
  100e03:	74 5b                	je     100e60 <filewrite+0x80>
    return pipewrite(f->pipe, addr, n);
  if(f->type == FD_INODE){
  100e05:	83 f8 03             	cmp    $0x3,%eax
  100e08:	75 6d                	jne    100e77 <filewrite+0x97>
    ilock(f->ip);
  100e0a:	8b 43 10             	mov    0x10(%ebx),%eax
  100e0d:	89 04 24             	mov    %eax,(%esp)
  100e10:	e8 2b 11 00 00       	call   101f40 <ilock>
    if((r = writei(f->ip, addr, f->off, n)) > 0)
  100e15:	89 7c 24 0c          	mov    %edi,0xc(%esp)
  100e19:	8b 43 14             	mov    0x14(%ebx),%eax
  100e1c:	89 74 24 04          	mov    %esi,0x4(%esp)
  100e20:	89 44 24 08          	mov    %eax,0x8(%esp)
  100e24:	8b 43 10             	mov    0x10(%ebx),%eax
  100e27:	89 04 24             	mov    %eax,(%esp)
  100e2a:	e8 81 09 00 00       	call   1017b0 <writei>
  100e2f:	85 c0                	test   %eax,%eax
  100e31:	7e 03                	jle    100e36 <filewrite+0x56>
      f->off += r;
  100e33:	01 43 14             	add    %eax,0x14(%ebx)
    iunlock(f->ip);
  100e36:	8b 53 10             	mov    0x10(%ebx),%edx
  100e39:	89 14 24             	mov    %edx,(%esp)
  100e3c:	89 45 e4             	mov    %eax,-0x1c(%ebp)
  100e3f:	e8 8c 10 00 00       	call   101ed0 <iunlock>
    return r;
  100e44:	8b 45 e4             	mov    -0x1c(%ebp),%eax
  }
  panic("filewrite");
}
  100e47:	8b 5d f4             	mov    -0xc(%ebp),%ebx
  100e4a:	8b 75 f8             	mov    -0x8(%ebp),%esi
  100e4d:	8b 7d fc             	mov    -0x4(%ebp),%edi
  100e50:	89 ec                	mov    %ebp,%esp
  100e52:	5d                   	pop    %ebp
  100e53:	c3                   	ret    
  100e54:	8d 74 26 00          	lea    0x0(%esi,%eiz,1),%esi
    if((r = writei(f->ip, addr, f->off, n)) > 0)
      f->off += r;
    iunlock(f->ip);
    return r;
  }
  panic("filewrite");
  100e58:	b8 ff ff ff ff       	mov    $0xffffffff,%eax
  100e5d:	eb e8                	jmp    100e47 <filewrite+0x67>
  100e5f:	90                   	nop
  int r;

  if(f->writable == 0)
    return -1;
  if(f->type == FD_PIPE)
    return pipewrite(f->pipe, addr, n);
  100e60:	8b 43 0c             	mov    0xc(%ebx),%eax
      f->off += r;
    iunlock(f->ip);
    return r;
  }
  panic("filewrite");
}
  100e63:	8b 75 f8             	mov    -0x8(%ebp),%esi
  100e66:	8b 5d f4             	mov    -0xc(%ebp),%ebx
  100e69:	8b 7d fc             	mov    -0x4(%ebp),%edi
  int r;

  if(f->writable == 0)
    return -1;
  if(f->type == FD_PIPE)
    return pipewrite(f->pipe, addr, n);
  100e6c:	89 45 08             	mov    %eax,0x8(%ebp)
      f->off += r;
    iunlock(f->ip);
    return r;
  }
  panic("filewrite");
}
  100e6f:	89 ec                	mov    %ebp,%esp
  100e71:	5d                   	pop    %ebp
  int r;

  if(f->writable == 0)
    return -1;
  if(f->type == FD_PIPE)
    return pipewrite(f->pipe, addr, n);
  100e72:	e9 39 23 00 00       	jmp    1031b0 <pipewrite>
    if((r = writei(f->ip, addr, f->off, n)) > 0)
      f->off += r;
    iunlock(f->ip);
    return r;
  }
  panic("filewrite");
  100e77:	c7 04 24 4a 69 10 00 	movl   $0x10694a,(%esp)
  100e7e:	e8 dd fa ff ff       	call   100960 <panic>
  100e83:	8d b6 00 00 00 00    	lea    0x0(%esi),%esi
  100e89:	8d bc 27 00 00 00 00 	lea    0x0(%edi,%eiz,1),%edi

00100e90 <filecheck>:
}

// Check if file exists in cache buffer.
int
filecheck(struct file *f, int offset)
{
  100e90:	55                   	push   %ebp
  100e91:	89 e5                	mov    %esp,%ebp
  100e93:	83 ec 18             	sub    $0x18,%esp
  100e96:	89 5d f8             	mov    %ebx,-0x8(%ebp)
  100e99:	8b 5d 08             	mov    0x8(%ebp),%ebx
  100e9c:	89 75 fc             	mov    %esi,-0x4(%ebp)
  int r;

  if(f->readable == 0)
  100e9f:	80 7b 08 00          	cmpb   $0x0,0x8(%ebx)
  100ea3:	74 3b                	je     100ee0 <filecheck+0x50>
    return -1;
  if(f->type == FD_INODE){
  100ea5:	83 3b 03             	cmpl   $0x3,(%ebx)
  100ea8:	75 47                	jne    100ef1 <filecheck+0x61>
    ilock(f->ip);
  100eaa:	8b 43 10             	mov    0x10(%ebx),%eax
  100ead:	89 04 24             	mov    %eax,(%esp)
  100eb0:	e8 8b 10 00 00       	call   101f40 <ilock>
    //cprintf("calling checki\n");
    r = checki(f->ip, offset);
  100eb5:	8b 45 0c             	mov    0xc(%ebp),%eax
  100eb8:	89 44 24 04          	mov    %eax,0x4(%esp)
  100ebc:	8b 43 10             	mov    0x10(%ebx),%eax
  100ebf:	89 04 24             	mov    %eax,(%esp)
  100ec2:	e8 49 0b 00 00       	call   101a10 <checki>
  100ec7:	89 c6                	mov    %eax,%esi
    iunlock(f->ip);
  100ec9:	8b 43 10             	mov    0x10(%ebx),%eax
  100ecc:	89 04 24             	mov    %eax,(%esp)
  100ecf:	e8 fc 0f 00 00       	call   101ed0 <iunlock>
    return r;
  }
  panic("filecheck");
}
  100ed4:	89 f0                	mov    %esi,%eax
  100ed6:	8b 5d f8             	mov    -0x8(%ebp),%ebx
  100ed9:	8b 75 fc             	mov    -0x4(%ebp),%esi
  100edc:	89 ec                	mov    %ebp,%esp
  100ede:	5d                   	pop    %ebp
  100edf:	c3                   	ret    
    //cprintf("calling checki\n");
    r = checki(f->ip, offset);
    iunlock(f->ip);
    return r;
  }
  panic("filecheck");
  100ee0:	be ff ff ff ff       	mov    $0xffffffff,%esi
}
  100ee5:	8b 5d f8             	mov    -0x8(%ebp),%ebx
  100ee8:	89 f0                	mov    %esi,%eax
  100eea:	8b 75 fc             	mov    -0x4(%ebp),%esi
  100eed:	89 ec                	mov    %ebp,%esp
  100eef:	5d                   	pop    %ebp
  100ef0:	c3                   	ret    
    //cprintf("calling checki\n");
    r = checki(f->ip, offset);
    iunlock(f->ip);
    return r;
  }
  panic("filecheck");
  100ef1:	c7 04 24 54 69 10 00 	movl   $0x106954,(%esp)
  100ef8:	e8 63 fa ff ff       	call   100960 <panic>
  100efd:	8d 76 00             	lea    0x0(%esi),%esi

00100f00 <fileread>:
}

// Read from file f.  Addr is kernel address.
int
fileread(struct file *f, char *addr, int n)
{
  100f00:	55                   	push   %ebp
  100f01:	89 e5                	mov    %esp,%ebp
  100f03:	83 ec 38             	sub    $0x38,%esp
  100f06:	89 5d f4             	mov    %ebx,-0xc(%ebp)
  100f09:	8b 5d 08             	mov    0x8(%ebp),%ebx
  100f0c:	89 75 f8             	mov    %esi,-0x8(%ebp)
  100f0f:	8b 75 0c             	mov    0xc(%ebp),%esi
  100f12:	89 7d fc             	mov    %edi,-0x4(%ebp)
  100f15:	8b 7d 10             	mov    0x10(%ebp),%edi
  int r;

  if(f->readable == 0)
  100f18:	80 7b 08 00          	cmpb   $0x0,0x8(%ebx)
  100f1c:	74 5a                	je     100f78 <fileread+0x78>
    return -1;
  if(f->type == FD_PIPE)
  100f1e:	8b 03                	mov    (%ebx),%eax
  100f20:	83 f8 02             	cmp    $0x2,%eax
  100f23:	74 5b                	je     100f80 <fileread+0x80>
    return piperead(f->pipe, addr, n);
  if(f->type == FD_INODE){
  100f25:	83 f8 03             	cmp    $0x3,%eax
  100f28:	75 6d                	jne    100f97 <fileread+0x97>
    ilock(f->ip);
  100f2a:	8b 43 10             	mov    0x10(%ebx),%eax
  100f2d:	89 04 24             	mov    %eax,(%esp)
  100f30:	e8 0b 10 00 00       	call   101f40 <ilock>
    if((r = readi(f->ip, addr, f->off, n)) > 0)
  100f35:	89 7c 24 0c          	mov    %edi,0xc(%esp)
  100f39:	8b 43 14             	mov    0x14(%ebx),%eax
  100f3c:	89 74 24 04          	mov    %esi,0x4(%esp)
  100f40:	89 44 24 08          	mov    %eax,0x8(%esp)
  100f44:	8b 43 10             	mov    0x10(%ebx),%eax
  100f47:	89 04 24             	mov    %eax,(%esp)
  100f4a:	e8 c1 06 00 00       	call   101610 <readi>
  100f4f:	85 c0                	test   %eax,%eax
  100f51:	7e 03                	jle    100f56 <fileread+0x56>
      f->off += r;
  100f53:	01 43 14             	add    %eax,0x14(%ebx)
    iunlock(f->ip);
  100f56:	8b 53 10             	mov    0x10(%ebx),%edx
  100f59:	89 14 24             	mov    %edx,(%esp)
  100f5c:	89 45 e4             	mov    %eax,-0x1c(%ebp)
  100f5f:	e8 6c 0f 00 00       	call   101ed0 <iunlock>
    return r;
  100f64:	8b 45 e4             	mov    -0x1c(%ebp),%eax
  }
  panic("fileread");
}
  100f67:	8b 5d f4             	mov    -0xc(%ebp),%ebx
  100f6a:	8b 75 f8             	mov    -0x8(%ebp),%esi
  100f6d:	8b 7d fc             	mov    -0x4(%ebp),%edi
  100f70:	89 ec                	mov    %ebp,%esp
  100f72:	5d                   	pop    %ebp
  100f73:	c3                   	ret    
  100f74:	8d 74 26 00          	lea    0x0(%esi,%eiz,1),%esi
    if((r = readi(f->ip, addr, f->off, n)) > 0)
      f->off += r;
    iunlock(f->ip);
    return r;
  }
  panic("fileread");
  100f78:	b8 ff ff ff ff       	mov    $0xffffffff,%eax
  100f7d:	eb e8                	jmp    100f67 <fileread+0x67>
  100f7f:	90                   	nop
  int r;

  if(f->readable == 0)
    return -1;
  if(f->type == FD_PIPE)
    return piperead(f->pipe, addr, n);
  100f80:	8b 43 0c             	mov    0xc(%ebx),%eax
      f->off += r;
    iunlock(f->ip);
    return r;
  }
  panic("fileread");
}
  100f83:	8b 75 f8             	mov    -0x8(%ebp),%esi
  100f86:	8b 5d f4             	mov    -0xc(%ebp),%ebx
  100f89:	8b 7d fc             	mov    -0x4(%ebp),%edi
  int r;

  if(f->readable == 0)
    return -1;
  if(f->type == FD_PIPE)
    return piperead(f->pipe, addr, n);
  100f8c:	89 45 08             	mov    %eax,0x8(%ebp)
      f->off += r;
    iunlock(f->ip);
    return r;
  }
  panic("fileread");
}
  100f8f:	89 ec                	mov    %ebp,%esp
  100f91:	5d                   	pop    %ebp
  int r;

  if(f->readable == 0)
    return -1;
  if(f->type == FD_PIPE)
    return piperead(f->pipe, addr, n);
  100f92:	e9 39 21 00 00       	jmp    1030d0 <piperead>
    if((r = readi(f->ip, addr, f->off, n)) > 0)
      f->off += r;
    iunlock(f->ip);
    return r;
  }
  panic("fileread");
  100f97:	c7 04 24 5e 69 10 00 	movl   $0x10695e,(%esp)
  100f9e:	e8 bd f9 ff ff       	call   100960 <panic>
  100fa3:	8d b6 00 00 00 00    	lea    0x0(%esi),%esi
  100fa9:	8d bc 27 00 00 00 00 	lea    0x0(%edi,%eiz,1),%edi

00100fb0 <filestat>:
}

// Get metadata about file f.
int
filestat(struct file *f, struct stat *st)
{
  100fb0:	55                   	push   %ebp
  if(f->type == FD_INODE){
  100fb1:	b8 ff ff ff ff       	mov    $0xffffffff,%eax
}

// Get metadata about file f.
int
filestat(struct file *f, struct stat *st)
{
  100fb6:	89 e5                	mov    %esp,%ebp
  100fb8:	53                   	push   %ebx
  100fb9:	83 ec 14             	sub    $0x14,%esp
  100fbc:	8b 5d 08             	mov    0x8(%ebp),%ebx
  if(f->type == FD_INODE){
  100fbf:	83 3b 03             	cmpl   $0x3,(%ebx)
  100fc2:	74 0c                	je     100fd0 <filestat+0x20>
    stati(f->ip, st);
    iunlock(f->ip);
    return 0;
  }
  return -1;
}
  100fc4:	83 c4 14             	add    $0x14,%esp
  100fc7:	5b                   	pop    %ebx
  100fc8:	5d                   	pop    %ebp
  100fc9:	c3                   	ret    
  100fca:	8d b6 00 00 00 00    	lea    0x0(%esi),%esi
// Get metadata about file f.
int
filestat(struct file *f, struct stat *st)
{
  if(f->type == FD_INODE){
    ilock(f->ip);
  100fd0:	8b 43 10             	mov    0x10(%ebx),%eax
  100fd3:	89 04 24             	mov    %eax,(%esp)
  100fd6:	e8 65 0f 00 00       	call   101f40 <ilock>
    stati(f->ip, st);
  100fdb:	8b 45 0c             	mov    0xc(%ebp),%eax
  100fde:	89 44 24 04          	mov    %eax,0x4(%esp)
  100fe2:	8b 43 10             	mov    0x10(%ebx),%eax
  100fe5:	89 04 24             	mov    %eax,(%esp)
  100fe8:	e8 f3 01 00 00       	call   1011e0 <stati>
    iunlock(f->ip);
  100fed:	8b 43 10             	mov    0x10(%ebx),%eax
  100ff0:	89 04 24             	mov    %eax,(%esp)
  100ff3:	e8 d8 0e 00 00       	call   101ed0 <iunlock>
    return 0;
  }
  return -1;
}
  100ff8:	83 c4 14             	add    $0x14,%esp
filestat(struct file *f, struct stat *st)
{
  if(f->type == FD_INODE){
    ilock(f->ip);
    stati(f->ip, st);
    iunlock(f->ip);
  100ffb:	31 c0                	xor    %eax,%eax
    return 0;
  }
  return -1;
}
  100ffd:	5b                   	pop    %ebx
  100ffe:	5d                   	pop    %ebp
  100fff:	c3                   	ret    

00101000 <filedup>:
}

// Increment ref count for file f.
struct file*
filedup(struct file *f)
{
  101000:	55                   	push   %ebp
  101001:	89 e5                	mov    %esp,%ebp
  101003:	53                   	push   %ebx
  101004:	83 ec 14             	sub    $0x14,%esp
  101007:	8b 5d 08             	mov    0x8(%ebp),%ebx
  acquire(&file_table_lock);
  10100a:	c7 04 24 60 aa 10 00 	movl   $0x10aa60,(%esp)
  101011:	e8 1a 37 00 00       	call   104730 <acquire>
  if(f->ref < 1 || f->type == FD_CLOSED)
  101016:	8b 43 04             	mov    0x4(%ebx),%eax
  101019:	85 c0                	test   %eax,%eax
  10101b:	7e 20                	jle    10103d <filedup+0x3d>
  10101d:	8b 13                	mov    (%ebx),%edx
  10101f:	85 d2                	test   %edx,%edx
  101021:	74 1a                	je     10103d <filedup+0x3d>
    panic("filedup");
  f->ref++;
  101023:	83 c0 01             	add    $0x1,%eax
  101026:	89 43 04             	mov    %eax,0x4(%ebx)
  release(&file_table_lock);
  101029:	c7 04 24 60 aa 10 00 	movl   $0x10aa60,(%esp)
  101030:	e8 bb 36 00 00       	call   1046f0 <release>
  return f;
}
  101035:	89 d8                	mov    %ebx,%eax
  101037:	83 c4 14             	add    $0x14,%esp
  10103a:	5b                   	pop    %ebx
  10103b:	5d                   	pop    %ebp
  10103c:	c3                   	ret    
struct file*
filedup(struct file *f)
{
  acquire(&file_table_lock);
  if(f->ref < 1 || f->type == FD_CLOSED)
    panic("filedup");
  10103d:	c7 04 24 67 69 10 00 	movl   $0x106967,(%esp)
  101044:	e8 17 f9 ff ff       	call   100960 <panic>
  101049:	8d b4 26 00 00 00 00 	lea    0x0(%esi,%eiz,1),%esi

00101050 <filealloc>:
}

// Allocate a file structure.
struct file*
filealloc(void)
{
  101050:	55                   	push   %ebp
  101051:	89 e5                	mov    %esp,%ebp
  101053:	53                   	push   %ebx
  101054:	83 ec 14             	sub    $0x14,%esp
  int i;

  acquire(&file_table_lock);
  101057:	c7 04 24 60 aa 10 00 	movl   $0x10aa60,(%esp)
  10105e:	e8 cd 36 00 00       	call   104730 <acquire>
  101063:	ba 00 a1 10 00       	mov    $0x10a100,%edx
  101068:	31 c0                	xor    %eax,%eax
  10106a:	eb 0f                	jmp    10107b <filealloc+0x2b>
  10106c:	8d 74 26 00          	lea    0x0(%esi,%eiz,1),%esi
  for(i = 0; i < NFILE; i++){
  101070:	83 c0 01             	add    $0x1,%eax
  101073:	83 c2 18             	add    $0x18,%edx
  101076:	83 f8 64             	cmp    $0x64,%eax
  101079:	74 45                	je     1010c0 <filealloc+0x70>
    if(file[i].type == FD_CLOSED){
  10107b:	8b 0a                	mov    (%edx),%ecx
  10107d:	85 c9                	test   %ecx,%ecx
  10107f:	75 ef                	jne    101070 <filealloc+0x20>
      file[i].type = FD_NONE;
  101081:	8d 14 40             	lea    (%eax,%eax,2),%edx
  101084:	8d 1c d5 00 00 00 00 	lea    0x0(,%edx,8),%ebx
      file[i].ref = 1;
      release(&file_table_lock);
  10108b:	c7 04 24 60 aa 10 00 	movl   $0x10aa60,(%esp)
  int i;

  acquire(&file_table_lock);
  for(i = 0; i < NFILE; i++){
    if(file[i].type == FD_CLOSED){
      file[i].type = FD_NONE;
  101092:	c7 04 d5 00 a1 10 00 	movl   $0x1,0x10a100(,%edx,8)
  101099:	01 00 00 00 
      file[i].ref = 1;
  10109d:	c7 04 d5 04 a1 10 00 	movl   $0x1,0x10a104(,%edx,8)
  1010a4:	01 00 00 00 
      release(&file_table_lock);
  1010a8:	e8 43 36 00 00       	call   1046f0 <release>
      return file + i;
  1010ad:	8d 83 00 a1 10 00    	lea    0x10a100(%ebx),%eax
    }
  }
  release(&file_table_lock);
  return 0;
}
  1010b3:	83 c4 14             	add    $0x14,%esp
  1010b6:	5b                   	pop    %ebx
  1010b7:	5d                   	pop    %ebp
  1010b8:	c3                   	ret    
  1010b9:	8d b4 26 00 00 00 00 	lea    0x0(%esi,%eiz,1),%esi
      file[i].ref = 1;
      release(&file_table_lock);
      return file + i;
    }
  }
  release(&file_table_lock);
  1010c0:	c7 04 24 60 aa 10 00 	movl   $0x10aa60,(%esp)
  1010c7:	e8 24 36 00 00       	call   1046f0 <release>
  return 0;
}
  1010cc:	83 c4 14             	add    $0x14,%esp
      file[i].ref = 1;
      release(&file_table_lock);
      return file + i;
    }
  }
  release(&file_table_lock);
  1010cf:	31 c0                	xor    %eax,%eax
  return 0;
}
  1010d1:	5b                   	pop    %ebx
  1010d2:	5d                   	pop    %ebp
  1010d3:	c3                   	ret    
  1010d4:	8d b6 00 00 00 00    	lea    0x0(%esi),%esi
  1010da:	8d bf 00 00 00 00    	lea    0x0(%edi),%edi

001010e0 <fileclose>:
}

// Close file f.  (Decrement ref count, close when reaches 0.)
void
fileclose(struct file *f)
{
  1010e0:	55                   	push   %ebp
  1010e1:	89 e5                	mov    %esp,%ebp
  1010e3:	83 ec 38             	sub    $0x38,%esp
  1010e6:	89 5d f4             	mov    %ebx,-0xc(%ebp)
  1010e9:	8b 5d 08             	mov    0x8(%ebp),%ebx
  1010ec:	89 75 f8             	mov    %esi,-0x8(%ebp)
  1010ef:	89 7d fc             	mov    %edi,-0x4(%ebp)
  struct file ff;

  acquire(&file_table_lock);
  1010f2:	c7 04 24 60 aa 10 00 	movl   $0x10aa60,(%esp)
  1010f9:	e8 32 36 00 00       	call   104730 <acquire>
  if(f->ref < 1 || f->type == FD_CLOSED)
  1010fe:	8b 43 04             	mov    0x4(%ebx),%eax
  101101:	85 c0                	test   %eax,%eax
  101103:	0f 8e 9f 00 00 00    	jle    1011a8 <fileclose+0xc8>
  101109:	8b 33                	mov    (%ebx),%esi
  10110b:	85 f6                	test   %esi,%esi
  10110d:	0f 84 95 00 00 00    	je     1011a8 <fileclose+0xc8>
    panic("fileclose");
  if(--f->ref > 0){
  101113:	83 e8 01             	sub    $0x1,%eax
  101116:	85 c0                	test   %eax,%eax
  101118:	89 43 04             	mov    %eax,0x4(%ebx)
  10111b:	74 1b                	je     101138 <fileclose+0x58>
    release(&file_table_lock);
  10111d:	c7 45 08 60 aa 10 00 	movl   $0x10aa60,0x8(%ebp)
    pipeclose(ff.pipe, ff.writable);
  else if(ff.type == FD_INODE)
    iput(ff.ip);
  else
    panic("fileclose");
}
  101124:	8b 5d f4             	mov    -0xc(%ebp),%ebx
  101127:	8b 75 f8             	mov    -0x8(%ebp),%esi
  10112a:	8b 7d fc             	mov    -0x4(%ebp),%edi
  10112d:	89 ec                	mov    %ebp,%esp
  10112f:	5d                   	pop    %ebp

  acquire(&file_table_lock);
  if(f->ref < 1 || f->type == FD_CLOSED)
    panic("fileclose");
  if(--f->ref > 0){
    release(&file_table_lock);
  101130:	e9 bb 35 00 00       	jmp    1046f0 <release>
  101135:	8d 76 00             	lea    0x0(%esi),%esi
    return;
  }
  ff = *f;
  101138:	8b 43 0c             	mov    0xc(%ebx),%eax
  10113b:	8b 33                	mov    (%ebx),%esi
  10113d:	8b 7b 10             	mov    0x10(%ebx),%edi
  f->ref = 0;
  101140:	c7 43 04 00 00 00 00 	movl   $0x0,0x4(%ebx)
    panic("fileclose");
  if(--f->ref > 0){
    release(&file_table_lock);
    return;
  }
  ff = *f;
  101147:	89 45 e0             	mov    %eax,-0x20(%ebp)
  10114a:	0f b6 43 09          	movzbl 0x9(%ebx),%eax
  f->ref = 0;
  f->type = FD_CLOSED;
  10114e:	c7 03 00 00 00 00    	movl   $0x0,(%ebx)
    panic("fileclose");
  if(--f->ref > 0){
    release(&file_table_lock);
    return;
  }
  ff = *f;
  101154:	88 45 e7             	mov    %al,-0x19(%ebp)
  f->ref = 0;
  f->type = FD_CLOSED;
  release(&file_table_lock);
  101157:	c7 04 24 60 aa 10 00 	movl   $0x10aa60,(%esp)
  10115e:	e8 8d 35 00 00       	call   1046f0 <release>
  
  if(ff.type == FD_PIPE)
  101163:	83 fe 02             	cmp    $0x2,%esi
  101166:	74 20                	je     101188 <fileclose+0xa8>
    pipeclose(ff.pipe, ff.writable);
  else if(ff.type == FD_INODE)
  101168:	83 fe 03             	cmp    $0x3,%esi
  10116b:	75 3b                	jne    1011a8 <fileclose+0xc8>
    iput(ff.ip);
  10116d:	89 7d 08             	mov    %edi,0x8(%ebp)
  else
    panic("fileclose");
}
  101170:	8b 5d f4             	mov    -0xc(%ebp),%ebx
  101173:	8b 75 f8             	mov    -0x8(%ebp),%esi
  101176:	8b 7d fc             	mov    -0x4(%ebp),%edi
  101179:	89 ec                	mov    %ebp,%esp
  10117b:	5d                   	pop    %ebp
  release(&file_table_lock);
  
  if(ff.type == FD_PIPE)
    pipeclose(ff.pipe, ff.writable);
  else if(ff.type == FD_INODE)
    iput(ff.ip);
  10117c:	e9 6f 0a 00 00       	jmp    101bf0 <iput>
  101181:	8d b4 26 00 00 00 00 	lea    0x0(%esi,%eiz,1),%esi
  f->ref = 0;
  f->type = FD_CLOSED;
  release(&file_table_lock);
  
  if(ff.type == FD_PIPE)
    pipeclose(ff.pipe, ff.writable);
  101188:	0f be 45 e7          	movsbl -0x19(%ebp),%eax
  10118c:	89 44 24 04          	mov    %eax,0x4(%esp)
  101190:	8b 45 e0             	mov    -0x20(%ebp),%eax
  101193:	89 04 24             	mov    %eax,(%esp)
  101196:	e8 15 21 00 00       	call   1032b0 <pipeclose>
  else if(ff.type == FD_INODE)
    iput(ff.ip);
  else
    panic("fileclose");
}
  10119b:	8b 5d f4             	mov    -0xc(%ebp),%ebx
  10119e:	8b 75 f8             	mov    -0x8(%ebp),%esi
  1011a1:	8b 7d fc             	mov    -0x4(%ebp),%edi
  1011a4:	89 ec                	mov    %ebp,%esp
  1011a6:	5d                   	pop    %ebp
  1011a7:	c3                   	ret    
  if(ff.type == FD_PIPE)
    pipeclose(ff.pipe, ff.writable);
  else if(ff.type == FD_INODE)
    iput(ff.ip);
  else
    panic("fileclose");
  1011a8:	c7 04 24 6f 69 10 00 	movl   $0x10696f,(%esp)
  1011af:	e8 ac f7 ff ff       	call   100960 <panic>
  1011b4:	8d b6 00 00 00 00    	lea    0x0(%esi),%esi
  1011ba:	8d bf 00 00 00 00    	lea    0x0(%edi),%edi

001011c0 <fileinit>:
struct spinlock file_table_lock;
struct file file[NFILE];

void
fileinit(void)
{
  1011c0:	55                   	push   %ebp
  1011c1:	89 e5                	mov    %esp,%ebp
  1011c3:	83 ec 18             	sub    $0x18,%esp
  initlock(&file_table_lock, "file_table");
  1011c6:	c7 44 24 04 79 69 10 	movl   $0x106979,0x4(%esp)
  1011cd:	00 
  1011ce:	c7 04 24 60 aa 10 00 	movl   $0x10aa60,(%esp)
  1011d5:	e8 96 33 00 00       	call   104570 <initlock>
}
  1011da:	c9                   	leave  
  1011db:	c3                   	ret    
  1011dc:	90                   	nop
  1011dd:	90                   	nop
  1011de:	90                   	nop
  1011df:	90                   	nop

001011e0 <stati>:
}

// Copy stat information from inode.
void
stati(struct inode *ip, struct stat *st)
{
  1011e0:	55                   	push   %ebp
  1011e1:	89 e5                	mov    %esp,%ebp
  1011e3:	8b 55 08             	mov    0x8(%ebp),%edx
  1011e6:	8b 45 0c             	mov    0xc(%ebp),%eax
  st->dev = ip->dev;
  1011e9:	8b 0a                	mov    (%edx),%ecx
  1011eb:	89 08                	mov    %ecx,(%eax)
  st->ino = ip->inum;
  1011ed:	8b 4a 04             	mov    0x4(%edx),%ecx
  1011f0:	89 48 04             	mov    %ecx,0x4(%eax)
  st->type = ip->type;
  1011f3:	0f b7 4a 10          	movzwl 0x10(%edx),%ecx
  1011f7:	66 89 48 08          	mov    %cx,0x8(%eax)
  st->nlink = ip->nlink;
  1011fb:	0f b7 4a 16          	movzwl 0x16(%edx),%ecx
  st->size = ip->size;
  1011ff:	8b 52 18             	mov    0x18(%edx),%edx
stati(struct inode *ip, struct stat *st)
{
  st->dev = ip->dev;
  st->ino = ip->inum;
  st->type = ip->type;
  st->nlink = ip->nlink;
  101202:	66 89 48 0a          	mov    %cx,0xa(%eax)
  st->size = ip->size;
  101206:	89 50 0c             	mov    %edx,0xc(%eax)
}
  101209:	5d                   	pop    %ebp
  10120a:	c3                   	ret    
  10120b:	90                   	nop
  10120c:	8d 74 26 00          	lea    0x0(%esi,%eiz,1),%esi

00101210 <idup>:

// Increment reference count for ip.
// Returns ip to enable ip = idup(ip1) idiom.
struct inode*
idup(struct inode *ip)
{
  101210:	55                   	push   %ebp
  101211:	89 e5                	mov    %esp,%ebp
  101213:	53                   	push   %ebx
  101214:	83 ec 14             	sub    $0x14,%esp
  101217:	8b 5d 08             	mov    0x8(%ebp),%ebx
  acquire(&icache.lock);
  10121a:	c7 04 24 00 ab 10 00 	movl   $0x10ab00,(%esp)
  101221:	e8 0a 35 00 00       	call   104730 <acquire>
  ip->ref++;
  101226:	83 43 08 01          	addl   $0x1,0x8(%ebx)
  release(&icache.lock);
  10122a:	c7 04 24 00 ab 10 00 	movl   $0x10ab00,(%esp)
  101231:	e8 ba 34 00 00       	call   1046f0 <release>
  return ip;
}
  101236:	89 d8                	mov    %ebx,%eax
  101238:	83 c4 14             	add    $0x14,%esp
  10123b:	5b                   	pop    %ebx
  10123c:	5d                   	pop    %ebp
  10123d:	c3                   	ret    
  10123e:	66 90                	xchg   %ax,%ax

00101240 <iget>:

// Find the inode with number inum on device dev
// and return the in-memory copy.
static struct inode*
iget(uint dev, uint inum)
{
  101240:	55                   	push   %ebp
  101241:	89 e5                	mov    %esp,%ebp
  101243:	57                   	push   %edi
  101244:	89 d7                	mov    %edx,%edi
  101246:	56                   	push   %esi
}

// Find the inode with number inum on device dev
// and return the in-memory copy.
static struct inode*
iget(uint dev, uint inum)
  101247:	31 f6                	xor    %esi,%esi
{
  101249:	53                   	push   %ebx
  10124a:	89 c3                	mov    %eax,%ebx
  10124c:	83 ec 2c             	sub    $0x2c,%esp
  struct inode *ip, *empty;

  acquire(&icache.lock);
  10124f:	c7 04 24 00 ab 10 00 	movl   $0x10ab00,(%esp)
  101256:	e8 d5 34 00 00       	call   104730 <acquire>
}

// Find the inode with number inum on device dev
// and return the in-memory copy.
static struct inode*
iget(uint dev, uint inum)
  10125b:	b8 34 ab 10 00       	mov    $0x10ab34,%eax
  101260:	eb 14                	jmp    101276 <iget+0x36>
  101262:	8d b6 00 00 00 00    	lea    0x0(%esi),%esi
    if(ip->ref > 0 && ip->dev == dev && ip->inum == inum){
      ip->ref++;
      release(&icache.lock);
      return ip;
    }
    if(empty == 0 && ip->ref == 0)    // Remember empty slot.
  101268:	85 f6                	test   %esi,%esi
  10126a:	74 3c                	je     1012a8 <iget+0x68>

  acquire(&icache.lock);

  // Try for cached inode.
  empty = 0;
  for(ip = &icache.inode[0]; ip < &icache.inode[NINODE]; ip++){
  10126c:	83 c0 50             	add    $0x50,%eax
  10126f:	3d d4 ba 10 00       	cmp    $0x10bad4,%eax
  101274:	74 42                	je     1012b8 <iget+0x78>
    if(ip->ref > 0 && ip->dev == dev && ip->inum == inum){
  101276:	8b 48 08             	mov    0x8(%eax),%ecx
  101279:	85 c9                	test   %ecx,%ecx
  10127b:	7e eb                	jle    101268 <iget+0x28>
  10127d:	39 18                	cmp    %ebx,(%eax)
  10127f:	75 e7                	jne    101268 <iget+0x28>
  101281:	39 78 04             	cmp    %edi,0x4(%eax)
  101284:	75 e2                	jne    101268 <iget+0x28>
      ip->ref++;
  101286:	83 c1 01             	add    $0x1,%ecx
  101289:	89 48 08             	mov    %ecx,0x8(%eax)
      release(&icache.lock);
  10128c:	c7 04 24 00 ab 10 00 	movl   $0x10ab00,(%esp)
  101293:	89 45 e4             	mov    %eax,-0x1c(%ebp)
  101296:	e8 55 34 00 00       	call   1046f0 <release>
      return ip;
  10129b:	8b 45 e4             	mov    -0x1c(%ebp),%eax
  ip->ref = 1;
  ip->flags = 0;
  release(&icache.lock);

  return ip;
}
  10129e:	83 c4 2c             	add    $0x2c,%esp
  1012a1:	5b                   	pop    %ebx
  1012a2:	5e                   	pop    %esi
  1012a3:	5f                   	pop    %edi
  1012a4:	5d                   	pop    %ebp
  1012a5:	c3                   	ret    
  1012a6:	66 90                	xchg   %ax,%ax
    if(ip->ref > 0 && ip->dev == dev && ip->inum == inum){
      ip->ref++;
      release(&icache.lock);
      return ip;
    }
    if(empty == 0 && ip->ref == 0)    // Remember empty slot.
  1012a8:	85 c9                	test   %ecx,%ecx
  1012aa:	75 c0                	jne    10126c <iget+0x2c>
  1012ac:	89 c6                	mov    %eax,%esi

  acquire(&icache.lock);

  // Try for cached inode.
  empty = 0;
  for(ip = &icache.inode[0]; ip < &icache.inode[NINODE]; ip++){
  1012ae:	83 c0 50             	add    $0x50,%eax
  1012b1:	3d d4 ba 10 00       	cmp    $0x10bad4,%eax
  1012b6:	75 be                	jne    101276 <iget+0x36>
    if(empty == 0 && ip->ref == 0)    // Remember empty slot.
      empty = ip;
  }

  // Allocate fresh inode.
  if(empty == 0)
  1012b8:	85 f6                	test   %esi,%esi
  1012ba:	74 29                	je     1012e5 <iget+0xa5>
    panic("iget: no inodes");

  ip = empty;
  ip->dev = dev;
  1012bc:	89 1e                	mov    %ebx,(%esi)
  ip->inum = inum;
  1012be:	89 7e 04             	mov    %edi,0x4(%esi)
  ip->ref = 1;
  1012c1:	c7 46 08 01 00 00 00 	movl   $0x1,0x8(%esi)
  ip->flags = 0;
  1012c8:	c7 46 0c 00 00 00 00 	movl   $0x0,0xc(%esi)
  release(&icache.lock);
  1012cf:	c7 04 24 00 ab 10 00 	movl   $0x10ab00,(%esp)
  1012d6:	e8 15 34 00 00       	call   1046f0 <release>

  return ip;
}
  1012db:	83 c4 2c             	add    $0x2c,%esp
  ip = empty;
  ip->dev = dev;
  ip->inum = inum;
  ip->ref = 1;
  ip->flags = 0;
  release(&icache.lock);
  1012de:	89 f0                	mov    %esi,%eax

  return ip;
}
  1012e0:	5b                   	pop    %ebx
  1012e1:	5e                   	pop    %esi
  1012e2:	5f                   	pop    %edi
  1012e3:	5d                   	pop    %ebp
  1012e4:	c3                   	ret    
      empty = ip;
  }

  // Allocate fresh inode.
  if(empty == 0)
    panic("iget: no inodes");
  1012e5:	c7 04 24 84 69 10 00 	movl   $0x106984,(%esp)
  1012ec:	e8 6f f6 ff ff       	call   100960 <panic>
  1012f1:	eb 0d                	jmp    101300 <readsb>
  1012f3:	90                   	nop
  1012f4:	90                   	nop
  1012f5:	90                   	nop
  1012f6:	90                   	nop
  1012f7:	90                   	nop
  1012f8:	90                   	nop
  1012f9:	90                   	nop
  1012fa:	90                   	nop
  1012fb:	90                   	nop
  1012fc:	90                   	nop
  1012fd:	90                   	nop
  1012fe:	90                   	nop
  1012ff:	90                   	nop

00101300 <readsb>:
static void itrunc(struct inode*);

// Read the super block.
static void
readsb(int dev, struct superblock *sb)
{
  101300:	55                   	push   %ebp
  101301:	89 e5                	mov    %esp,%ebp
  101303:	83 ec 18             	sub    $0x18,%esp
  struct buf *bp;
  
  bp = bread(dev, 1);
  101306:	c7 44 24 04 01 00 00 	movl   $0x1,0x4(%esp)
  10130d:	00 
static void itrunc(struct inode*);

// Read the super block.
static void
readsb(int dev, struct superblock *sb)
{
  10130e:	89 5d f8             	mov    %ebx,-0x8(%ebp)
  101311:	89 75 fc             	mov    %esi,-0x4(%ebp)
  101314:	89 d6                	mov    %edx,%esi
  struct buf *bp;
  
  bp = bread(dev, 1);
  101316:	89 04 24             	mov    %eax,(%esp)
  101319:	e8 12 ee ff ff       	call   100130 <bread>
  memmove(sb, bp->data, sizeof(*sb));
  10131e:	89 34 24             	mov    %esi,(%esp)
  101321:	c7 44 24 08 0c 00 00 	movl   $0xc,0x8(%esp)
  101328:	00 
static void
readsb(int dev, struct superblock *sb)
{
  struct buf *bp;
  
  bp = bread(dev, 1);
  101329:	89 c3                	mov    %eax,%ebx
  memmove(sb, bp->data, sizeof(*sb));
  10132b:	8d 40 18             	lea    0x18(%eax),%eax
  10132e:	89 44 24 04          	mov    %eax,0x4(%esp)
  101332:	e8 f9 34 00 00       	call   104830 <memmove>
  brelse(bp);
  101337:	89 1c 24             	mov    %ebx,(%esp)
  10133a:	e8 c1 ec ff ff       	call   100000 <brelse>
}
  10133f:	8b 5d f8             	mov    -0x8(%ebp),%ebx
  101342:	8b 75 fc             	mov    -0x4(%ebp),%esi
  101345:	89 ec                	mov    %ebp,%esp
  101347:	5d                   	pop    %ebp
  101348:	c3                   	ret    
  101349:	8d b4 26 00 00 00 00 	lea    0x0(%esi,%eiz,1),%esi

00101350 <balloc>:
// Blocks. 

// Allocate a disk block.
static uint
balloc(uint dev)
{
  101350:	55                   	push   %ebp
  101351:	89 e5                	mov    %esp,%ebp
  101353:	57                   	push   %edi
  101354:	56                   	push   %esi
  101355:	53                   	push   %ebx
  101356:	83 ec 3c             	sub    $0x3c,%esp
  int b, bi, m;
  struct buf *bp;
  struct superblock sb;

  bp = 0;
  readsb(dev, &sb);
  101359:	8d 55 dc             	lea    -0x24(%ebp),%edx
// Blocks. 

// Allocate a disk block.
static uint
balloc(uint dev)
{
  10135c:	89 45 d0             	mov    %eax,-0x30(%ebp)
  int b, bi, m;
  struct buf *bp;
  struct superblock sb;

  bp = 0;
  readsb(dev, &sb);
  10135f:	e8 9c ff ff ff       	call   101300 <readsb>
  for(b = 0; b < sb.size; b += BPB){
  101364:	8b 45 dc             	mov    -0x24(%ebp),%eax
  101367:	85 c0                	test   %eax,%eax
  101369:	0f 84 9c 00 00 00    	je     10140b <balloc+0xbb>
  10136f:	c7 45 d4 00 00 00 00 	movl   $0x0,-0x2c(%ebp)
    bp = bread(dev, BBLOCK(b, sb.ninodes));
  101376:	8b 45 e4             	mov    -0x1c(%ebp),%eax
  101379:	31 db                	xor    %ebx,%ebx
  10137b:	8b 55 d4             	mov    -0x2c(%ebp),%edx
  10137e:	c1 e8 03             	shr    $0x3,%eax
  101381:	c1 fa 0c             	sar    $0xc,%edx
  101384:	8d 44 10 03          	lea    0x3(%eax,%edx,1),%eax
  101388:	89 44 24 04          	mov    %eax,0x4(%esp)
  10138c:	8b 45 d0             	mov    -0x30(%ebp),%eax
  10138f:	89 04 24             	mov    %eax,(%esp)
  101392:	e8 99 ed ff ff       	call   100130 <bread>
  101397:	89 c6                	mov    %eax,%esi
  101399:	eb 10                	jmp    1013ab <balloc+0x5b>
  10139b:	90                   	nop
  10139c:	8d 74 26 00          	lea    0x0(%esi,%eiz,1),%esi
    for(bi = 0; bi < BPB; bi++){
  1013a0:	83 c3 01             	add    $0x1,%ebx
  1013a3:	81 fb 00 10 00 00    	cmp    $0x1000,%ebx
  1013a9:	74 45                	je     1013f0 <balloc+0xa0>
      m = 1 << (bi % 8);
  1013ab:	89 d9                	mov    %ebx,%ecx
  1013ad:	ba 01 00 00 00       	mov    $0x1,%edx
  1013b2:	83 e1 07             	and    $0x7,%ecx
      if((bp->data[bi/8] & m) == 0){  // Is block free?
  1013b5:	89 d8                	mov    %ebx,%eax
  bp = 0;
  readsb(dev, &sb);
  for(b = 0; b < sb.size; b += BPB){
    bp = bread(dev, BBLOCK(b, sb.ninodes));
    for(bi = 0; bi < BPB; bi++){
      m = 1 << (bi % 8);
  1013b7:	d3 e2                	shl    %cl,%edx
      if((bp->data[bi/8] & m) == 0){  // Is block free?
  1013b9:	c1 f8 03             	sar    $0x3,%eax
  bp = 0;
  readsb(dev, &sb);
  for(b = 0; b < sb.size; b += BPB){
    bp = bread(dev, BBLOCK(b, sb.ninodes));
    for(bi = 0; bi < BPB; bi++){
      m = 1 << (bi % 8);
  1013bc:	89 d1                	mov    %edx,%ecx
      if((bp->data[bi/8] & m) == 0){  // Is block free?
  1013be:	0f b6 54 06 18       	movzbl 0x18(%esi,%eax,1),%edx
  1013c3:	0f b6 fa             	movzbl %dl,%edi
  1013c6:	85 cf                	test   %ecx,%edi
  1013c8:	75 d6                	jne    1013a0 <balloc+0x50>
        bp->data[bi/8] |= m;  // Mark block in use on disk.
  1013ca:	09 d1                	or     %edx,%ecx
  1013cc:	88 4c 06 18          	mov    %cl,0x18(%esi,%eax,1)
        bwrite(bp);
  1013d0:	89 34 24             	mov    %esi,(%esp)
  1013d3:	e8 28 ed ff ff       	call   100100 <bwrite>
        brelse(bp);
  1013d8:	89 34 24             	mov    %esi,(%esp)
  1013db:	e8 20 ec ff ff       	call   100000 <brelse>
  1013e0:	8b 55 d4             	mov    -0x2c(%ebp),%edx
    }
    brelse(bp);
    //cprintf("b = %d", b);
  }
  panic("balloc: out of blocks");
}
  1013e3:	83 c4 3c             	add    $0x3c,%esp
    for(bi = 0; bi < BPB; bi++){
      m = 1 << (bi % 8);
      if((bp->data[bi/8] & m) == 0){  // Is block free?
        bp->data[bi/8] |= m;  // Mark block in use on disk.
        bwrite(bp);
        brelse(bp);
  1013e6:	8d 04 13             	lea    (%ebx,%edx,1),%eax
    }
    brelse(bp);
    //cprintf("b = %d", b);
  }
  panic("balloc: out of blocks");
}
  1013e9:	5b                   	pop    %ebx
  1013ea:	5e                   	pop    %esi
  1013eb:	5f                   	pop    %edi
  1013ec:	5d                   	pop    %ebp
  1013ed:	c3                   	ret    
  1013ee:	66 90                	xchg   %ax,%ax
        bwrite(bp);
        brelse(bp);
        return b + bi;
      }
    }
    brelse(bp);
  1013f0:	89 34 24             	mov    %esi,(%esp)
  1013f3:	e8 08 ec ff ff       	call   100000 <brelse>
  struct buf *bp;
  struct superblock sb;

  bp = 0;
  readsb(dev, &sb);
  for(b = 0; b < sb.size; b += BPB){
  1013f8:	81 45 d4 00 10 00 00 	addl   $0x1000,-0x2c(%ebp)
  1013ff:	8b 45 d4             	mov    -0x2c(%ebp),%eax
  101402:	39 45 dc             	cmp    %eax,-0x24(%ebp)
  101405:	0f 87 6b ff ff ff    	ja     101376 <balloc+0x26>
      }
    }
    brelse(bp);
    //cprintf("b = %d", b);
  }
  panic("balloc: out of blocks");
  10140b:	c7 04 24 94 69 10 00 	movl   $0x106994,(%esp)
  101412:	e8 49 f5 ff ff       	call   100960 <panic>
  101417:	89 f6                	mov    %esi,%esi
  101419:	8d bc 27 00 00 00 00 	lea    0x0(%edi,%eiz,1),%edi

00101420 <bmap>:

// Return the disk block address of the nth block in inode ip.
// If there is no such block, alloc controls whether one is allocated.
static uint
bmap(struct inode *ip, uint bn, int alloc)
{
  101420:	55                   	push   %ebp
  101421:	89 e5                	mov    %esp,%ebp
  101423:	83 ec 38             	sub    $0x38,%esp
  uint addr, *a;
  struct buf *bp;

  if(bn < NDIRECT){
  101426:	83 fa 0a             	cmp    $0xa,%edx

// Return the disk block address of the nth block in inode ip.
// If there is no such block, alloc controls whether one is allocated.
static uint
bmap(struct inode *ip, uint bn, int alloc)
{
  101429:	89 5d f4             	mov    %ebx,-0xc(%ebp)
  10142c:	89 c3                	mov    %eax,%ebx
  10142e:	89 75 f8             	mov    %esi,-0x8(%ebp)
  101431:	89 ce                	mov    %ecx,%esi
  101433:	89 7d fc             	mov    %edi,-0x4(%ebp)
  uint addr, *a;
  struct buf *bp;

  if(bn < NDIRECT){
  101436:	77 28                	ja     101460 <bmap+0x40>
    if((addr = ip->addrs[bn]) == 0){
  101438:	8d 7a 04             	lea    0x4(%edx),%edi
  10143b:	8b 44 b8 0c          	mov    0xc(%eax,%edi,4),%eax
  10143f:	85 c0                	test   %eax,%eax
  101441:	75 0d                	jne    101450 <bmap+0x30>
      if(!alloc)
  101443:	85 c9                	test   %ecx,%ecx
  101445:	0f 85 e5 00 00 00    	jne    101530 <bmap+0x110>
	  brelse(bp);
	  return addr;

  }

  panic("bmap: out of range");
  10144b:	b8 ff ff ff ff       	mov    $0xffffffff,%eax
}
  101450:	8b 5d f4             	mov    -0xc(%ebp),%ebx
  101453:	8b 75 f8             	mov    -0x8(%ebp),%esi
  101456:	8b 7d fc             	mov    -0x4(%ebp),%edi
  101459:	89 ec                	mov    %ebp,%esp
  10145b:	5d                   	pop    %ebp
  10145c:	c3                   	ret    
  10145d:	8d 76 00             	lea    0x0(%esi),%esi
        return -1;
      ip->addrs[bn] = addr = balloc(ip->dev);
    }
    return addr;
  }
  bn -= NDIRECT;
  101460:	8d 4a f5             	lea    -0xb(%edx),%ecx

  //check indirect
  if(bn < NINDIRECT){
  101463:	83 f9 7f             	cmp    $0x7f,%ecx
  101466:	76 68                	jbe    1014d0 <bmap+0xb0>
    return addr;
  }

  //NEW CODE
  //decrement block number for new reference
  bn -= NINDIRECT;
  101468:	8d ba 75 ff ff ff    	lea    -0x8b(%edx),%edi


  //DOUBLE INDIRECT
  if(bn < NDINDIRECT){
  10146e:	81 ff ff 3f 00 00    	cmp    $0x3fff,%edi
  101474:	0f 87 86 01 00 00    	ja     101600 <bmap+0x1e0>

	  //cprintf("bn is %d\n", bn);

	  if((addr = ip->addrs[DINDIRECT]) == 0){
  10147a:	8b 40 4c             	mov    0x4c(%eax),%eax
  10147d:	85 c0                	test   %eax,%eax
  10147f:	75 0e                	jne    10148f <bmap+0x6f>
	     if(!alloc)
  101481:	85 f6                	test   %esi,%esi
  101483:	74 c6                	je     10144b <bmap+0x2b>
	        return -1;
	     ip->addrs[DINDIRECT] = addr = balloc(ip->dev);
  101485:	8b 03                	mov    (%ebx),%eax
  101487:	e8 c4 fe ff ff       	call   101350 <balloc>
  10148c:	89 43 4c             	mov    %eax,0x4c(%ebx)
	  }
	  bp = bread(ip->dev, addr);
  10148f:	89 44 24 04          	mov    %eax,0x4(%esp)
  101493:	8b 03                	mov    (%ebx),%eax
  101495:	89 04 24             	mov    %eax,(%esp)
  101498:	e8 93 ec ff ff       	call   100130 <bread>
  10149d:	89 c2                	mov    %eax,%edx
	  //calculate base and offset indirect block in double indirect block
	  uint base = bn / NINDIRECT;
	  uint offset = bn % NINDIRECT;

	  //grab indirect block and allocate if necessary
	  if((addr = a[base]) == 0){
  10149f:	89 f8                	mov    %edi,%eax
  1014a1:	c1 e8 07             	shr    $0x7,%eax
  1014a4:	8d 4c 82 18          	lea    0x18(%edx,%eax,4),%ecx
  1014a8:	8b 01                	mov    (%ecx),%eax
  1014aa:	85 c0                	test   %eax,%eax
  1014ac:	0f 85 b4 00 00 00    	jne    101566 <bmap+0x146>
	        if(!alloc){
  1014b2:	85 f6                	test   %esi,%esi
  1014b4:	0f 85 86 00 00 00    	jne    101540 <bmap+0x120>
	  a = (uint*)bp->data;

	  //get data block from indirect block
	  if((addr = a[offset]) == 0){
	        if(!alloc){
	          brelse(bp);
  1014ba:	89 14 24             	mov    %edx,(%esp)
  1014bd:	e8 3e eb ff ff       	call   100000 <brelse>
  1014c2:	b8 ff ff ff ff       	mov    $0xffffffff,%eax
	          return -1;
  1014c7:	eb 87                	jmp    101450 <bmap+0x30>
  1014c9:	8d b4 26 00 00 00 00 	lea    0x0(%esi,%eiz,1),%esi

  //check indirect
  if(bn < NINDIRECT){

    // Load indirect block, allocating if necessary.
    if((addr = ip->addrs[INDIRECT]) == 0){
  1014d0:	8b 40 48             	mov    0x48(%eax),%eax
  1014d3:	85 c0                	test   %eax,%eax
  1014d5:	75 18                	jne    1014ef <bmap+0xcf>
      if(!alloc)
  1014d7:	85 f6                	test   %esi,%esi
  1014d9:	0f 84 6c ff ff ff    	je     10144b <bmap+0x2b>
        return -1;
      //cprintf("allocating indirect block %d in indirect\n", bn);
      ip->addrs[INDIRECT] = addr = balloc(ip->dev);
  1014df:	8b 03                	mov    (%ebx),%eax
  1014e1:	89 4d e4             	mov    %ecx,-0x1c(%ebp)
  1014e4:	e8 67 fe ff ff       	call   101350 <balloc>
  1014e9:	8b 4d e4             	mov    -0x1c(%ebp),%ecx
  1014ec:	89 43 48             	mov    %eax,0x48(%ebx)
    }
    bp = bread(ip->dev, addr);
  1014ef:	89 44 24 04          	mov    %eax,0x4(%esp)
  1014f3:	8b 03                	mov    (%ebx),%eax
  1014f5:	89 4d e4             	mov    %ecx,-0x1c(%ebp)
  1014f8:	89 04 24             	mov    %eax,(%esp)
  1014fb:	e8 30 ec ff ff       	call   100130 <bread>
    a = (uint*)bp->data;
  
    if((addr = a[bn]) == 0){
  101500:	8b 4d e4             	mov    -0x1c(%ebp),%ecx
  101503:	8d 54 88 18          	lea    0x18(%eax,%ecx,4),%edx
      if(!alloc)
        return -1;
      //cprintf("allocating indirect block %d in indirect\n", bn);
      ip->addrs[INDIRECT] = addr = balloc(ip->dev);
    }
    bp = bread(ip->dev, addr);
  101507:	89 c7                	mov    %eax,%edi
    a = (uint*)bp->data;
  
    if((addr = a[bn]) == 0){
  101509:	8b 02                	mov    (%edx),%eax
  10150b:	85 c0                	test   %eax,%eax
  10150d:	0f 85 da 00 00 00    	jne    1015ed <bmap+0x1cd>
      if(!alloc){
  101513:	85 f6                	test   %esi,%esi
  101515:	0f 85 b5 00 00 00    	jne    1015d0 <bmap+0x1b0>
        brelse(bp);
  10151b:	89 3c 24             	mov    %edi,(%esp)
  10151e:	e8 dd ea ff ff       	call   100000 <brelse>
  101523:	b8 ff ff ff ff       	mov    $0xffffffff,%eax
        return -1;
  101528:	e9 23 ff ff ff       	jmp    101450 <bmap+0x30>
  10152d:	8d 76 00             	lea    0x0(%esi),%esi

  if(bn < NDIRECT){
    if((addr = ip->addrs[bn]) == 0){
      if(!alloc)
        return -1;
      ip->addrs[bn] = addr = balloc(ip->dev);
  101530:	8b 03                	mov    (%ebx),%eax
  101532:	e8 19 fe ff ff       	call   101350 <balloc>
  101537:	89 44 bb 0c          	mov    %eax,0xc(%ebx,%edi,4)
  10153b:	e9 10 ff ff ff       	jmp    101450 <bmap+0x30>
	        if(!alloc){
	          brelse(bp);
	          return -1;
	        }
	        //cprintf("allocating new indirect block for bn = %d\n", bn);
	        a[base] = addr = balloc(ip->dev);
  101540:	8b 03                	mov    (%ebx),%eax
  101542:	89 55 e0             	mov    %edx,-0x20(%ebp)
  101545:	89 4d e4             	mov    %ecx,-0x1c(%ebp)
  101548:	e8 03 fe ff ff       	call   101350 <balloc>
  10154d:	8b 4d e4             	mov    -0x1c(%ebp),%ecx
	        bwrite(bp);
  101550:	8b 55 e0             	mov    -0x20(%ebp),%edx
	        if(!alloc){
	          brelse(bp);
	          return -1;
	        }
	        //cprintf("allocating new indirect block for bn = %d\n", bn);
	        a[base] = addr = balloc(ip->dev);
  101553:	89 01                	mov    %eax,(%ecx)
	        bwrite(bp);
  101555:	89 45 e4             	mov    %eax,-0x1c(%ebp)
  101558:	89 14 24             	mov    %edx,(%esp)
  10155b:	e8 a0 eb ff ff       	call   100100 <bwrite>
  101560:	8b 55 e0             	mov    -0x20(%ebp),%edx
  101563:	8b 45 e4             	mov    -0x1c(%ebp),%eax
	  }

	  brelse(bp);
  101566:	89 14 24             	mov    %edx,(%esp)
	  bp = bread(ip->dev, addr);
	  a = (uint*)bp->data;

	  //get data block from indirect block
	  if((addr = a[offset]) == 0){
  101569:	83 e7 7f             	and    $0x7f,%edi
	        //cprintf("allocating new indirect block for bn = %d\n", bn);
	        a[base] = addr = balloc(ip->dev);
	        bwrite(bp);
	  }

	  brelse(bp);
  10156c:	89 45 e4             	mov    %eax,-0x1c(%ebp)
  10156f:	e8 8c ea ff ff       	call   100000 <brelse>
	  bp = bread(ip->dev, addr);
  101574:	8b 45 e4             	mov    -0x1c(%ebp),%eax
  101577:	89 44 24 04          	mov    %eax,0x4(%esp)
  10157b:	8b 03                	mov    (%ebx),%eax
  10157d:	89 04 24             	mov    %eax,(%esp)
  101580:	e8 ab eb ff ff       	call   100130 <bread>
	  a = (uint*)bp->data;

	  //get data block from indirect block
	  if((addr = a[offset]) == 0){
  101585:	8d 7c b8 18          	lea    0x18(%eax,%edi,4),%edi
	        a[base] = addr = balloc(ip->dev);
	        bwrite(bp);
	  }

	  brelse(bp);
	  bp = bread(ip->dev, addr);
  101589:	89 c2                	mov    %eax,%edx
	  a = (uint*)bp->data;

	  //get data block from indirect block
	  if((addr = a[offset]) == 0){
  10158b:	8b 07                	mov    (%edi),%eax
  10158d:	85 c0                	test   %eax,%eax
  10158f:	75 28                	jne    1015b9 <bmap+0x199>
	        if(!alloc){
  101591:	85 f6                	test   %esi,%esi
  101593:	0f 84 21 ff ff ff    	je     1014ba <bmap+0x9a>
	          brelse(bp);
	          return -1;
	        }
	        //cprintf("allocating new data block with bn = %d\n", bn);
	        a[offset] = addr = balloc(ip->dev);
  101599:	8b 03                	mov    (%ebx),%eax
  10159b:	89 55 e0             	mov    %edx,-0x20(%ebp)
  10159e:	e8 ad fd ff ff       	call   101350 <balloc>
	        bwrite(bp);
  1015a3:	8b 55 e0             	mov    -0x20(%ebp),%edx
	        if(!alloc){
	          brelse(bp);
	          return -1;
	        }
	        //cprintf("allocating new data block with bn = %d\n", bn);
	        a[offset] = addr = balloc(ip->dev);
  1015a6:	89 07                	mov    %eax,(%edi)
	        bwrite(bp);
  1015a8:	89 45 e4             	mov    %eax,-0x1c(%ebp)
  1015ab:	89 14 24             	mov    %edx,(%esp)
  1015ae:	e8 4d eb ff ff       	call   100100 <bwrite>
  1015b3:	8b 55 e0             	mov    -0x20(%ebp),%edx
  1015b6:	8b 45 e4             	mov    -0x1c(%ebp),%eax
	  }
	  brelse(bp);
  1015b9:	89 45 e4             	mov    %eax,-0x1c(%ebp)
  1015bc:	89 14 24             	mov    %edx,(%esp)
  1015bf:	e8 3c ea ff ff       	call   100000 <brelse>
	  return addr;
  1015c4:	8b 45 e4             	mov    -0x1c(%ebp),%eax
  1015c7:	e9 84 fe ff ff       	jmp    101450 <bmap+0x30>
  1015cc:	8d 74 26 00          	lea    0x0(%esi,%eiz,1),%esi
      if(!alloc){
        brelse(bp);
        return -1;
      }
      //cprintf("allocating data block %d in indirect\n", bn);
      a[bn] = addr = balloc(ip->dev);
  1015d0:	8b 03                	mov    (%ebx),%eax
  1015d2:	89 55 e0             	mov    %edx,-0x20(%ebp)
  1015d5:	e8 76 fd ff ff       	call   101350 <balloc>
  1015da:	8b 55 e0             	mov    -0x20(%ebp),%edx
  1015dd:	89 02                	mov    %eax,(%edx)
      bwrite(bp);
  1015df:	89 45 e4             	mov    %eax,-0x1c(%ebp)
  1015e2:	89 3c 24             	mov    %edi,(%esp)
  1015e5:	e8 16 eb ff ff       	call   100100 <bwrite>
  1015ea:	8b 45 e4             	mov    -0x1c(%ebp),%eax
    }
    brelse(bp);
  1015ed:	89 45 e4             	mov    %eax,-0x1c(%ebp)
  1015f0:	89 3c 24             	mov    %edi,(%esp)
  1015f3:	e8 08 ea ff ff       	call   100000 <brelse>
    return addr;
  1015f8:	8b 45 e4             	mov    -0x1c(%ebp),%eax
  1015fb:	e9 50 fe ff ff       	jmp    101450 <bmap+0x30>
	  brelse(bp);
	  return addr;

  }

  panic("bmap: out of range");
  101600:	c7 04 24 aa 69 10 00 	movl   $0x1069aa,(%esp)
  101607:	e8 54 f3 ff ff       	call   100960 <panic>
  10160c:	8d 74 26 00          	lea    0x0(%esi,%eiz,1),%esi

00101610 <readi>:
}

// Read data from inode.
int
readi(struct inode *ip, char *dst, uint off, uint n)
{
  101610:	55                   	push   %ebp
  101611:	89 e5                	mov    %esp,%ebp
  101613:	83 ec 38             	sub    $0x38,%esp
  101616:	89 5d f4             	mov    %ebx,-0xc(%ebp)
  101619:	8b 5d 08             	mov    0x8(%ebp),%ebx
  10161c:	8b 45 14             	mov    0x14(%ebp),%eax
  10161f:	89 75 f8             	mov    %esi,-0x8(%ebp)
  101622:	8b 75 10             	mov    0x10(%ebp),%esi
  101625:	89 7d fc             	mov    %edi,-0x4(%ebp)
  101628:	8b 7d 0c             	mov    0xc(%ebp),%edi
  uint tot, m;
  struct buf *bp;

  if(ip->type == T_DEV){
  10162b:	66 83 7b 10 03       	cmpw   $0x3,0x10(%ebx)
}

// Read data from inode.
int
readi(struct inode *ip, char *dst, uint off, uint n)
{
  101630:	89 45 e4             	mov    %eax,-0x1c(%ebp)
  uint tot, m;
  struct buf *bp;

  if(ip->type == T_DEV){
  101633:	74 1b                	je     101650 <readi+0x40>
    if(ip->major < 0 || ip->major >= NDEV || !devsw[ip->major].read)
      return -1;
    return devsw[ip->major].read(ip, dst, n);
  }

  if(off > ip->size || off + n < off)
  101635:	8b 43 18             	mov    0x18(%ebx),%eax
  101638:	39 f0                	cmp    %esi,%eax
  10163a:	73 44                	jae    101680 <readi+0x70>
    bp = bread(ip->dev, bmap(ip, off/BSIZE, 0));
    m = min(n - tot, BSIZE - off%BSIZE);
    memmove(dst, bp->data + off%BSIZE, m);
    brelse(bp);
  }
  return n;
  10163c:	b8 ff ff ff ff       	mov    $0xffffffff,%eax
}
  101641:	8b 5d f4             	mov    -0xc(%ebp),%ebx
  101644:	8b 75 f8             	mov    -0x8(%ebp),%esi
  101647:	8b 7d fc             	mov    -0x4(%ebp),%edi
  10164a:	89 ec                	mov    %ebp,%esp
  10164c:	5d                   	pop    %ebp
  10164d:	c3                   	ret    
  10164e:	66 90                	xchg   %ax,%ax
{
  uint tot, m;
  struct buf *bp;

  if(ip->type == T_DEV){
    if(ip->major < 0 || ip->major >= NDEV || !devsw[ip->major].read)
  101650:	0f b7 43 12          	movzwl 0x12(%ebx),%eax
  101654:	66 83 f8 09          	cmp    $0x9,%ax
  101658:	77 e2                	ja     10163c <readi+0x2c>
  10165a:	98                   	cwtl   
  10165b:	8b 04 c5 a0 aa 10 00 	mov    0x10aaa0(,%eax,8),%eax
  101662:	85 c0                	test   %eax,%eax
  101664:	74 d6                	je     10163c <readi+0x2c>
      return -1;
    return devsw[ip->major].read(ip, dst, n);
  101666:	8b 55 e4             	mov    -0x1c(%ebp),%edx
    m = min(n - tot, BSIZE - off%BSIZE);
    memmove(dst, bp->data + off%BSIZE, m);
    brelse(bp);
  }
  return n;
}
  101669:	8b 5d f4             	mov    -0xc(%ebp),%ebx
  10166c:	8b 75 f8             	mov    -0x8(%ebp),%esi
  10166f:	8b 7d fc             	mov    -0x4(%ebp),%edi
  struct buf *bp;

  if(ip->type == T_DEV){
    if(ip->major < 0 || ip->major >= NDEV || !devsw[ip->major].read)
      return -1;
    return devsw[ip->major].read(ip, dst, n);
  101672:	89 55 10             	mov    %edx,0x10(%ebp)
    m = min(n - tot, BSIZE - off%BSIZE);
    memmove(dst, bp->data + off%BSIZE, m);
    brelse(bp);
  }
  return n;
}
  101675:	89 ec                	mov    %ebp,%esp
  101677:	5d                   	pop    %ebp
  struct buf *bp;

  if(ip->type == T_DEV){
    if(ip->major < 0 || ip->major >= NDEV || !devsw[ip->major].read)
      return -1;
    return devsw[ip->major].read(ip, dst, n);
  101678:	ff e0                	jmp    *%eax
  10167a:	8d b6 00 00 00 00    	lea    0x0(%esi),%esi
  }

  if(off > ip->size || off + n < off)
  101680:	8b 55 e4             	mov    -0x1c(%ebp),%edx
  101683:	01 f2                	add    %esi,%edx
  101685:	72 b5                	jb     10163c <readi+0x2c>
    return -1;
  if(off + n > ip->size)
  101687:	39 d0                	cmp    %edx,%eax
  101689:	73 05                	jae    101690 <readi+0x80>
    n = ip->size - off;
  10168b:	29 f0                	sub    %esi,%eax
  10168d:	89 45 e4             	mov    %eax,-0x1c(%ebp)

  for(tot=0; tot<n; tot+=m, off+=m, dst+=m){
  101690:	8b 55 e4             	mov    -0x1c(%ebp),%edx
  101693:	85 d2                	test   %edx,%edx
  101695:	74 7e                	je     101715 <readi+0x105>
  101697:	c7 45 e0 00 00 00 00 	movl   $0x0,-0x20(%ebp)
    bp = bread(ip->dev, bmap(ip, off/BSIZE, 0));
    m = min(n - tot, BSIZE - off%BSIZE);
  10169e:	89 7d dc             	mov    %edi,-0x24(%ebp)
  1016a1:	8d b4 26 00 00 00 00 	lea    0x0(%esi,%eiz,1),%esi
    return -1;
  if(off + n > ip->size)
    n = ip->size - off;

  for(tot=0; tot<n; tot+=m, off+=m, dst+=m){
    bp = bread(ip->dev, bmap(ip, off/BSIZE, 0));
  1016a8:	89 f2                	mov    %esi,%edx
  1016aa:	31 c9                	xor    %ecx,%ecx
  1016ac:	c1 ea 09             	shr    $0x9,%edx
  1016af:	89 d8                	mov    %ebx,%eax
  1016b1:	e8 6a fd ff ff       	call   101420 <bmap>
    m = min(n - tot, BSIZE - off%BSIZE);
  1016b6:	bf 00 02 00 00       	mov    $0x200,%edi
    return -1;
  if(off + n > ip->size)
    n = ip->size - off;

  for(tot=0; tot<n; tot+=m, off+=m, dst+=m){
    bp = bread(ip->dev, bmap(ip, off/BSIZE, 0));
  1016bb:	89 44 24 04          	mov    %eax,0x4(%esp)
  1016bf:	8b 03                	mov    (%ebx),%eax
  1016c1:	89 04 24             	mov    %eax,(%esp)
  1016c4:	e8 67 ea ff ff       	call   100130 <bread>
    m = min(n - tot, BSIZE - off%BSIZE);
  1016c9:	8b 4d e4             	mov    -0x1c(%ebp),%ecx
  1016cc:	2b 4d e0             	sub    -0x20(%ebp),%ecx
    return -1;
  if(off + n > ip->size)
    n = ip->size - off;

  for(tot=0; tot<n; tot+=m, off+=m, dst+=m){
    bp = bread(ip->dev, bmap(ip, off/BSIZE, 0));
  1016cf:	89 c2                	mov    %eax,%edx
    m = min(n - tot, BSIZE - off%BSIZE);
  1016d1:	89 f0                	mov    %esi,%eax
  1016d3:	25 ff 01 00 00       	and    $0x1ff,%eax
  1016d8:	29 c7                	sub    %eax,%edi
  1016da:	39 cf                	cmp    %ecx,%edi
  1016dc:	76 02                	jbe    1016e0 <readi+0xd0>
  1016de:	89 cf                	mov    %ecx,%edi
    memmove(dst, bp->data + off%BSIZE, m);
  1016e0:	8d 44 02 18          	lea    0x18(%edx,%eax,1),%eax
  if(off > ip->size || off + n < off)
    return -1;
  if(off + n > ip->size)
    n = ip->size - off;

  for(tot=0; tot<n; tot+=m, off+=m, dst+=m){
  1016e4:	01 fe                	add    %edi,%esi
    bp = bread(ip->dev, bmap(ip, off/BSIZE, 0));
    m = min(n - tot, BSIZE - off%BSIZE);
    memmove(dst, bp->data + off%BSIZE, m);
  1016e6:	89 7c 24 08          	mov    %edi,0x8(%esp)
  1016ea:	89 44 24 04          	mov    %eax,0x4(%esp)
  1016ee:	8b 45 dc             	mov    -0x24(%ebp),%eax
  1016f1:	89 04 24             	mov    %eax,(%esp)
  1016f4:	89 55 d8             	mov    %edx,-0x28(%ebp)
  1016f7:	e8 34 31 00 00       	call   104830 <memmove>
    brelse(bp);
  1016fc:	8b 55 d8             	mov    -0x28(%ebp),%edx
  1016ff:	89 14 24             	mov    %edx,(%esp)
  101702:	e8 f9 e8 ff ff       	call   100000 <brelse>
  if(off > ip->size || off + n < off)
    return -1;
  if(off + n > ip->size)
    n = ip->size - off;

  for(tot=0; tot<n; tot+=m, off+=m, dst+=m){
  101707:	01 7d e0             	add    %edi,-0x20(%ebp)
  10170a:	8b 55 e0             	mov    -0x20(%ebp),%edx
  10170d:	01 7d dc             	add    %edi,-0x24(%ebp)
  101710:	39 55 e4             	cmp    %edx,-0x1c(%ebp)
  101713:	77 93                	ja     1016a8 <readi+0x98>
    bp = bread(ip->dev, bmap(ip, off/BSIZE, 0));
    m = min(n - tot, BSIZE - off%BSIZE);
    memmove(dst, bp->data + off%BSIZE, m);
    brelse(bp);
  }
  return n;
  101715:	8b 45 e4             	mov    -0x1c(%ebp),%eax
  101718:	e9 24 ff ff ff       	jmp    101641 <readi+0x31>
  10171d:	8d 76 00             	lea    0x0(%esi),%esi

00101720 <iupdate>:
}

// Copy inode, which has changed, from memory to disk.
void
iupdate(struct inode *ip)
{
  101720:	55                   	push   %ebp
  101721:	89 e5                	mov    %esp,%ebp
  101723:	56                   	push   %esi
  101724:	53                   	push   %ebx
  101725:	83 ec 10             	sub    $0x10,%esp
  101728:	8b 5d 08             	mov    0x8(%ebp),%ebx
  struct buf *bp;
  struct dinode *dip;

  bp = bread(ip->dev, IBLOCK(ip->inum));
  10172b:	8b 43 04             	mov    0x4(%ebx),%eax
  10172e:	c1 e8 03             	shr    $0x3,%eax
  101731:	83 c0 02             	add    $0x2,%eax
  101734:	89 44 24 04          	mov    %eax,0x4(%esp)
  101738:	8b 03                	mov    (%ebx),%eax
  10173a:	89 04 24             	mov    %eax,(%esp)
  10173d:	e8 ee e9 ff ff       	call   100130 <bread>
  dip = (struct dinode*)bp->data + ip->inum%IPB;
  dip->type = ip->type;
  101742:	0f b7 53 10          	movzwl 0x10(%ebx),%edx
iupdate(struct inode *ip)
{
  struct buf *bp;
  struct dinode *dip;

  bp = bread(ip->dev, IBLOCK(ip->inum));
  101746:	89 c6                	mov    %eax,%esi
  dip = (struct dinode*)bp->data + ip->inum%IPB;
  101748:	8b 43 04             	mov    0x4(%ebx),%eax
  10174b:	83 e0 07             	and    $0x7,%eax
  10174e:	c1 e0 06             	shl    $0x6,%eax
  101751:	8d 44 06 18          	lea    0x18(%esi,%eax,1),%eax
  dip->type = ip->type;
  101755:	66 89 10             	mov    %dx,(%eax)
  dip->major = ip->major;
  101758:	0f b7 53 12          	movzwl 0x12(%ebx),%edx
  10175c:	66 89 50 02          	mov    %dx,0x2(%eax)
  dip->minor = ip->minor;
  101760:	0f b7 53 14          	movzwl 0x14(%ebx),%edx
  101764:	66 89 50 04          	mov    %dx,0x4(%eax)
  dip->nlink = ip->nlink;
  101768:	0f b7 53 16          	movzwl 0x16(%ebx),%edx
  10176c:	66 89 50 06          	mov    %dx,0x6(%eax)
  dip->size = ip->size;
  101770:	8b 53 18             	mov    0x18(%ebx),%edx
  memmove(dip->addrs, ip->addrs, sizeof(ip->addrs));
  101773:	83 c3 1c             	add    $0x1c,%ebx
  dip = (struct dinode*)bp->data + ip->inum%IPB;
  dip->type = ip->type;
  dip->major = ip->major;
  dip->minor = ip->minor;
  dip->nlink = ip->nlink;
  dip->size = ip->size;
  101776:	89 50 08             	mov    %edx,0x8(%eax)
  memmove(dip->addrs, ip->addrs, sizeof(ip->addrs));
  101779:	83 c0 0c             	add    $0xc,%eax
  10177c:	89 5c 24 04          	mov    %ebx,0x4(%esp)
  101780:	c7 44 24 08 34 00 00 	movl   $0x34,0x8(%esp)
  101787:	00 
  101788:	89 04 24             	mov    %eax,(%esp)
  10178b:	e8 a0 30 00 00       	call   104830 <memmove>
  bwrite(bp);
  101790:	89 34 24             	mov    %esi,(%esp)
  101793:	e8 68 e9 ff ff       	call   100100 <bwrite>
  brelse(bp);
  101798:	89 75 08             	mov    %esi,0x8(%ebp)
}
  10179b:	83 c4 10             	add    $0x10,%esp
  10179e:	5b                   	pop    %ebx
  10179f:	5e                   	pop    %esi
  1017a0:	5d                   	pop    %ebp
  dip->minor = ip->minor;
  dip->nlink = ip->nlink;
  dip->size = ip->size;
  memmove(dip->addrs, ip->addrs, sizeof(ip->addrs));
  bwrite(bp);
  brelse(bp);
  1017a1:	e9 5a e8 ff ff       	jmp    100000 <brelse>
  1017a6:	8d 76 00             	lea    0x0(%esi),%esi
  1017a9:	8d bc 27 00 00 00 00 	lea    0x0(%edi,%eiz,1),%edi

001017b0 <writei>:
 }

// Write data to inode.
int
writei(struct inode *ip, char *src, uint off, uint n)
{
  1017b0:	55                   	push   %ebp
  1017b1:	89 e5                	mov    %esp,%ebp
  1017b3:	57                   	push   %edi
  1017b4:	56                   	push   %esi
  1017b5:	53                   	push   %ebx
  1017b6:	83 ec 2c             	sub    $0x2c,%esp
  1017b9:	8b 75 08             	mov    0x8(%ebp),%esi
  1017bc:	8b 45 0c             	mov    0xc(%ebp),%eax
  1017bf:	8b 55 14             	mov    0x14(%ebp),%edx
  1017c2:	8b 5d 10             	mov    0x10(%ebp),%ebx
  uint tot, m;
  struct buf *bp;

  if(ip->type == T_DEV){
  1017c5:	66 83 7e 10 03       	cmpw   $0x3,0x10(%esi)
 }

// Write data to inode.
int
writei(struct inode *ip, char *src, uint off, uint n)
{
  1017ca:	89 45 e0             	mov    %eax,-0x20(%ebp)
  1017cd:	89 55 dc             	mov    %edx,-0x24(%ebp)
  uint tot, m;
  struct buf *bp;

  if(ip->type == T_DEV){
  1017d0:	0f 84 c2 00 00 00    	je     101898 <writei+0xe8>
    if(ip->major < 0 || ip->major >= NDEV || !devsw[ip->major].write)
      return -1;
    return devsw[ip->major].write(ip, src, n);
  }

  if(off + n < off)
  1017d6:	8b 45 dc             	mov    -0x24(%ebp),%eax
  1017d9:	01 d8                	add    %ebx,%eax
  1017db:	0f 82 c1 00 00 00    	jb     1018a2 <writei+0xf2>
    return -1;
  if(off + n > MAXFILE*BSIZE)
  1017e1:	3d 00 16 81 00       	cmp    $0x811600,%eax
  1017e6:	76 0a                	jbe    1017f2 <writei+0x42>
    n = MAXFILE*BSIZE - off;
  1017e8:	c7 45 dc 00 16 81 00 	movl   $0x811600,-0x24(%ebp)
  1017ef:	29 5d dc             	sub    %ebx,-0x24(%ebp)

  for(tot=0; tot<n; tot+=m, off+=m, src+=m){
  1017f2:	8b 4d dc             	mov    -0x24(%ebp),%ecx
  1017f5:	85 c9                	test   %ecx,%ecx
  1017f7:	0f 84 8b 00 00 00    	je     101888 <writei+0xd8>
  1017fd:	c7 45 e4 00 00 00 00 	movl   $0x0,-0x1c(%ebp)
  101804:	8d 74 26 00          	lea    0x0(%esi,%eiz,1),%esi
    bp = bread(ip->dev, bmap(ip, off/BSIZE, 1));
  101808:	89 da                	mov    %ebx,%edx
  10180a:	b9 01 00 00 00       	mov    $0x1,%ecx
  10180f:	c1 ea 09             	shr    $0x9,%edx
  101812:	89 f0                	mov    %esi,%eax
  101814:	e8 07 fc ff ff       	call   101420 <bmap>
    m = min(n - tot, BSIZE - off%BSIZE);
  101819:	bf 00 02 00 00       	mov    $0x200,%edi
    return -1;
  if(off + n > MAXFILE*BSIZE)
    n = MAXFILE*BSIZE - off;

  for(tot=0; tot<n; tot+=m, off+=m, src+=m){
    bp = bread(ip->dev, bmap(ip, off/BSIZE, 1));
  10181e:	89 44 24 04          	mov    %eax,0x4(%esp)
  101822:	8b 06                	mov    (%esi),%eax
  101824:	89 04 24             	mov    %eax,(%esp)
  101827:	e8 04 e9 ff ff       	call   100130 <bread>
    m = min(n - tot, BSIZE - off%BSIZE);
  10182c:	8b 4d dc             	mov    -0x24(%ebp),%ecx
  10182f:	2b 4d e4             	sub    -0x1c(%ebp),%ecx
    return -1;
  if(off + n > MAXFILE*BSIZE)
    n = MAXFILE*BSIZE - off;

  for(tot=0; tot<n; tot+=m, off+=m, src+=m){
    bp = bread(ip->dev, bmap(ip, off/BSIZE, 1));
  101832:	89 c2                	mov    %eax,%edx
    m = min(n - tot, BSIZE - off%BSIZE);
  101834:	89 d8                	mov    %ebx,%eax
  101836:	25 ff 01 00 00       	and    $0x1ff,%eax
  10183b:	29 c7                	sub    %eax,%edi
  10183d:	39 cf                	cmp    %ecx,%edi
  10183f:	76 02                	jbe    101843 <writei+0x93>
  101841:	89 cf                	mov    %ecx,%edi
    memmove(bp->data + off%BSIZE, src, m);
  101843:	89 7c 24 08          	mov    %edi,0x8(%esp)
  101847:	8b 4d e0             	mov    -0x20(%ebp),%ecx
  10184a:	8d 44 02 18          	lea    0x18(%edx,%eax,1),%eax
  10184e:	89 04 24             	mov    %eax,(%esp)
  if(off + n < off)
    return -1;
  if(off + n > MAXFILE*BSIZE)
    n = MAXFILE*BSIZE - off;

  for(tot=0; tot<n; tot+=m, off+=m, src+=m){
  101851:	01 fb                	add    %edi,%ebx
    bp = bread(ip->dev, bmap(ip, off/BSIZE, 1));
    m = min(n - tot, BSIZE - off%BSIZE);
    memmove(bp->data + off%BSIZE, src, m);
  101853:	89 4c 24 04          	mov    %ecx,0x4(%esp)
  101857:	89 55 d8             	mov    %edx,-0x28(%ebp)
  10185a:	e8 d1 2f 00 00       	call   104830 <memmove>
    bwrite(bp);
  10185f:	8b 55 d8             	mov    -0x28(%ebp),%edx
  101862:	89 14 24             	mov    %edx,(%esp)
  101865:	e8 96 e8 ff ff       	call   100100 <bwrite>
    brelse(bp);
  10186a:	8b 55 d8             	mov    -0x28(%ebp),%edx
  10186d:	89 14 24             	mov    %edx,(%esp)
  101870:	e8 8b e7 ff ff       	call   100000 <brelse>
  if(off + n < off)
    return -1;
  if(off + n > MAXFILE*BSIZE)
    n = MAXFILE*BSIZE - off;

  for(tot=0; tot<n; tot+=m, off+=m, src+=m){
  101875:	01 7d e4             	add    %edi,-0x1c(%ebp)
  101878:	8b 45 e4             	mov    -0x1c(%ebp),%eax
  10187b:	01 7d e0             	add    %edi,-0x20(%ebp)
  10187e:	39 45 dc             	cmp    %eax,-0x24(%ebp)
  101881:	77 85                	ja     101808 <writei+0x58>
    memmove(bp->data + off%BSIZE, src, m);
    bwrite(bp);
    brelse(bp);
  }

  if(n > 0 && off > ip->size){
  101883:	3b 5e 18             	cmp    0x18(%esi),%ebx
  101886:	77 28                	ja     1018b0 <writei+0x100>
    ip->size = off;
    iupdate(ip);
  }
  return n;
  101888:	8b 45 dc             	mov    -0x24(%ebp),%eax
}
  10188b:	83 c4 2c             	add    $0x2c,%esp
  10188e:	5b                   	pop    %ebx
  10188f:	5e                   	pop    %esi
  101890:	5f                   	pop    %edi
  101891:	5d                   	pop    %ebp
  101892:	c3                   	ret    
  101893:	90                   	nop
  101894:	8d 74 26 00          	lea    0x0(%esi,%eiz,1),%esi
{
  uint tot, m;
  struct buf *bp;

  if(ip->type == T_DEV){
    if(ip->major < 0 || ip->major >= NDEV || !devsw[ip->major].write)
  101898:	0f b7 46 12          	movzwl 0x12(%esi),%eax
  10189c:	66 83 f8 09          	cmp    $0x9,%ax
  1018a0:	76 1b                	jbe    1018bd <writei+0x10d>
  if(n > 0 && off > ip->size){
    ip->size = off;
    iupdate(ip);
  }
  return n;
}
  1018a2:	83 c4 2c             	add    $0x2c,%esp

  if(n > 0 && off > ip->size){
    ip->size = off;
    iupdate(ip);
  }
  return n;
  1018a5:	b8 ff ff ff ff       	mov    $0xffffffff,%eax
}
  1018aa:	5b                   	pop    %ebx
  1018ab:	5e                   	pop    %esi
  1018ac:	5f                   	pop    %edi
  1018ad:	5d                   	pop    %ebp
  1018ae:	c3                   	ret    
  1018af:	90                   	nop
    bwrite(bp);
    brelse(bp);
  }

  if(n > 0 && off > ip->size){
    ip->size = off;
  1018b0:	89 5e 18             	mov    %ebx,0x18(%esi)
    iupdate(ip);
  1018b3:	89 34 24             	mov    %esi,(%esp)
  1018b6:	e8 65 fe ff ff       	call   101720 <iupdate>
  1018bb:	eb cb                	jmp    101888 <writei+0xd8>
{
  uint tot, m;
  struct buf *bp;

  if(ip->type == T_DEV){
    if(ip->major < 0 || ip->major >= NDEV || !devsw[ip->major].write)
  1018bd:	98                   	cwtl   
  1018be:	8b 04 c5 a4 aa 10 00 	mov    0x10aaa4(,%eax,8),%eax
  1018c5:	85 c0                	test   %eax,%eax
  1018c7:	74 d9                	je     1018a2 <writei+0xf2>
      return -1;
    return devsw[ip->major].write(ip, src, n);
  1018c9:	89 55 10             	mov    %edx,0x10(%ebp)
  if(n > 0 && off > ip->size){
    ip->size = off;
    iupdate(ip);
  }
  return n;
}
  1018cc:	83 c4 2c             	add    $0x2c,%esp
  1018cf:	5b                   	pop    %ebx
  1018d0:	5e                   	pop    %esi
  1018d1:	5f                   	pop    %edi
  1018d2:	5d                   	pop    %ebp
  struct buf *bp;

  if(ip->type == T_DEV){
    if(ip->major < 0 || ip->major >= NDEV || !devsw[ip->major].write)
      return -1;
    return devsw[ip->major].write(ip, src, n);
  1018d3:	ff e0                	jmp    *%eax
  1018d5:	8d 74 26 00          	lea    0x0(%esi,%eiz,1),%esi
  1018d9:	8d bc 27 00 00 00 00 	lea    0x0(%edi,%eiz,1),%edi

001018e0 <namecmp>:

// Directories

int
namecmp(const char *s, const char *t)
{
  1018e0:	55                   	push   %ebp
  1018e1:	89 e5                	mov    %esp,%ebp
  1018e3:	83 ec 18             	sub    $0x18,%esp
  return strncmp(s, t, DIRSIZ);
  1018e6:	8b 45 0c             	mov    0xc(%ebp),%eax
  1018e9:	c7 44 24 08 0e 00 00 	movl   $0xe,0x8(%esp)
  1018f0:	00 
  1018f1:	89 44 24 04          	mov    %eax,0x4(%esp)
  1018f5:	8b 45 08             	mov    0x8(%ebp),%eax
  1018f8:	89 04 24             	mov    %eax,(%esp)
  1018fb:	e8 90 2f 00 00       	call   104890 <strncmp>
}
  101900:	c9                   	leave  
  101901:	c3                   	ret    
  101902:	8d b4 26 00 00 00 00 	lea    0x0(%esi,%eiz,1),%esi
  101909:	8d bc 27 00 00 00 00 	lea    0x0(%edi,%eiz,1),%edi

00101910 <dirlookup>:
// Look for a directory entry in a directory.
// If found, set *poff to byte offset of entry.
// Caller must have already locked dp.
struct inode*
dirlookup(struct inode *dp, char *name, uint *poff)
{
  101910:	55                   	push   %ebp
  101911:	89 e5                	mov    %esp,%ebp
  101913:	57                   	push   %edi
  101914:	56                   	push   %esi
  101915:	53                   	push   %ebx
  101916:	83 ec 3c             	sub    $0x3c,%esp
  101919:	8b 45 08             	mov    0x8(%ebp),%eax
  10191c:	8b 55 10             	mov    0x10(%ebp),%edx
  10191f:	8b 5d 0c             	mov    0xc(%ebp),%ebx
  uint off, inum;
  struct buf *bp;
  struct dirent *de;

  if(dp->type != T_DIR)
  101922:	66 83 78 10 01       	cmpw   $0x1,0x10(%eax)
// Look for a directory entry in a directory.
// If found, set *poff to byte offset of entry.
// Caller must have already locked dp.
struct inode*
dirlookup(struct inode *dp, char *name, uint *poff)
{
  101927:	89 45 dc             	mov    %eax,-0x24(%ebp)
  10192a:	89 55 d4             	mov    %edx,-0x2c(%ebp)
  uint off, inum;
  struct buf *bp;
  struct dirent *de;

  if(dp->type != T_DIR)
  10192d:	0f 85 d0 00 00 00    	jne    101a03 <dirlookup+0xf3>
    panic("dirlookup not DIR");

  for(off = 0; off < dp->size; off += BSIZE){
  101933:	8b 70 18             	mov    0x18(%eax),%esi
  uint off, inum;
  struct buf *bp;
  struct dirent *de;

  if(dp->type != T_DIR)
    panic("dirlookup not DIR");
  101936:	c7 45 e0 00 00 00 00 	movl   $0x0,-0x20(%ebp)

  for(off = 0; off < dp->size; off += BSIZE){
  10193d:	85 f6                	test   %esi,%esi
  10193f:	0f 84 b4 00 00 00    	je     1019f9 <dirlookup+0xe9>
    bp = bread(dp->dev, bmap(dp, off / BSIZE, 0));
  101945:	8b 55 e0             	mov    -0x20(%ebp),%edx
  101948:	31 c9                	xor    %ecx,%ecx
  10194a:	8b 45 dc             	mov    -0x24(%ebp),%eax
  10194d:	c1 ea 09             	shr    $0x9,%edx
  101950:	e8 cb fa ff ff       	call   101420 <bmap>
  101955:	89 44 24 04          	mov    %eax,0x4(%esp)
  101959:	8b 4d dc             	mov    -0x24(%ebp),%ecx
  10195c:	8b 01                	mov    (%ecx),%eax
  10195e:	89 04 24             	mov    %eax,(%esp)
  101961:	e8 ca e7 ff ff       	call   100130 <bread>
  101966:	89 45 e4             	mov    %eax,-0x1c(%ebp)

// Look for a directory entry in a directory.
// If found, set *poff to byte offset of entry.
// Caller must have already locked dp.
struct inode*
dirlookup(struct inode *dp, char *name, uint *poff)
  101969:	8b 7d e4             	mov    -0x1c(%ebp),%edi
  if(dp->type != T_DIR)
    panic("dirlookup not DIR");

  for(off = 0; off < dp->size; off += BSIZE){
    bp = bread(dp->dev, bmap(dp, off / BSIZE, 0));
    for(de = (struct dirent*)bp->data;
  10196c:	83 c0 18             	add    $0x18,%eax
  10196f:	89 45 d8             	mov    %eax,-0x28(%ebp)
  101972:	89 c6                	mov    %eax,%esi

// Look for a directory entry in a directory.
// If found, set *poff to byte offset of entry.
// Caller must have already locked dp.
struct inode*
dirlookup(struct inode *dp, char *name, uint *poff)
  101974:	81 c7 18 02 00 00    	add    $0x218,%edi
  10197a:	eb 0b                	jmp    101987 <dirlookup+0x77>
  10197c:	8d 74 26 00          	lea    0x0(%esi,%eiz,1),%esi

  for(off = 0; off < dp->size; off += BSIZE){
    bp = bread(dp->dev, bmap(dp, off / BSIZE, 0));
    for(de = (struct dirent*)bp->data;
        de < (struct dirent*)(bp->data + BSIZE);
        de++){
  101980:	83 c6 10             	add    $0x10,%esi
  if(dp->type != T_DIR)
    panic("dirlookup not DIR");

  for(off = 0; off < dp->size; off += BSIZE){
    bp = bread(dp->dev, bmap(dp, off / BSIZE, 0));
    for(de = (struct dirent*)bp->data;
  101983:	39 fe                	cmp    %edi,%esi
  101985:	74 51                	je     1019d8 <dirlookup+0xc8>
        de < (struct dirent*)(bp->data + BSIZE);
        de++){
      if(de->inum == 0)
  101987:	66 83 3e 00          	cmpw   $0x0,(%esi)
  10198b:	74 f3                	je     101980 <dirlookup+0x70>
        continue;
      if(namecmp(name, de->name) == 0){
  10198d:	8d 46 02             	lea    0x2(%esi),%eax
  101990:	89 44 24 04          	mov    %eax,0x4(%esp)
  101994:	89 1c 24             	mov    %ebx,(%esp)
  101997:	e8 44 ff ff ff       	call   1018e0 <namecmp>
  10199c:	85 c0                	test   %eax,%eax
  10199e:	75 e0                	jne    101980 <dirlookup+0x70>
        // entry matches path element
        if(poff)
  1019a0:	8b 5d d4             	mov    -0x2c(%ebp),%ebx
  1019a3:	85 db                	test   %ebx,%ebx
  1019a5:	74 0e                	je     1019b5 <dirlookup+0xa5>
          *poff = off + (uchar*)de - bp->data;
  1019a7:	8b 55 e0             	mov    -0x20(%ebp),%edx
  1019aa:	8b 4d d4             	mov    -0x2c(%ebp),%ecx
  1019ad:	8d 04 16             	lea    (%esi,%edx,1),%eax
  1019b0:	2b 45 d8             	sub    -0x28(%ebp),%eax
  1019b3:	89 01                	mov    %eax,(%ecx)
        inum = de->inum;
        brelse(bp);
  1019b5:	8b 45 e4             	mov    -0x1c(%ebp),%eax
        continue;
      if(namecmp(name, de->name) == 0){
        // entry matches path element
        if(poff)
          *poff = off + (uchar*)de - bp->data;
        inum = de->inum;
  1019b8:	0f b7 1e             	movzwl (%esi),%ebx
        brelse(bp);
  1019bb:	89 04 24             	mov    %eax,(%esp)
  1019be:	e8 3d e6 ff ff       	call   100000 <brelse>
        return iget(dp->dev, inum);
  1019c3:	8b 4d dc             	mov    -0x24(%ebp),%ecx
  1019c6:	89 da                	mov    %ebx,%edx
  1019c8:	8b 01                	mov    (%ecx),%eax
      }
    }
    brelse(bp);
  }
  return 0;
}
  1019ca:	83 c4 3c             	add    $0x3c,%esp
  1019cd:	5b                   	pop    %ebx
  1019ce:	5e                   	pop    %esi
  1019cf:	5f                   	pop    %edi
  1019d0:	5d                   	pop    %ebp
        // entry matches path element
        if(poff)
          *poff = off + (uchar*)de - bp->data;
        inum = de->inum;
        brelse(bp);
        return iget(dp->dev, inum);
  1019d1:	e9 6a f8 ff ff       	jmp    101240 <iget>
  1019d6:	66 90                	xchg   %ax,%ax
      }
    }
    brelse(bp);
  1019d8:	8b 45 e4             	mov    -0x1c(%ebp),%eax
  1019db:	89 04 24             	mov    %eax,(%esp)
  1019de:	e8 1d e6 ff ff       	call   100000 <brelse>
  struct dirent *de;

  if(dp->type != T_DIR)
    panic("dirlookup not DIR");

  for(off = 0; off < dp->size; off += BSIZE){
  1019e3:	8b 55 dc             	mov    -0x24(%ebp),%edx
  1019e6:	81 45 e0 00 02 00 00 	addl   $0x200,-0x20(%ebp)
  1019ed:	8b 4d e0             	mov    -0x20(%ebp),%ecx
  1019f0:	39 4a 18             	cmp    %ecx,0x18(%edx)
  1019f3:	0f 87 4c ff ff ff    	ja     101945 <dirlookup+0x35>
      }
    }
    brelse(bp);
  }
  return 0;
}
  1019f9:	83 c4 3c             	add    $0x3c,%esp
  1019fc:	31 c0                	xor    %eax,%eax
  1019fe:	5b                   	pop    %ebx
  1019ff:	5e                   	pop    %esi
  101a00:	5f                   	pop    %edi
  101a01:	5d                   	pop    %ebp
  101a02:	c3                   	ret    
  uint off, inum;
  struct buf *bp;
  struct dirent *de;

  if(dp->type != T_DIR)
    panic("dirlookup not DIR");
  101a03:	c7 04 24 bd 69 10 00 	movl   $0x1069bd,(%esp)
  101a0a:	e8 51 ef ff ff       	call   100960 <panic>
  101a0f:	90                   	nop

00101a10 <checki>:
}

// Check data from inode to see if it is in the buffer cache.
int
checki(struct inode *ip, int off)
{
  101a10:	55                   	push   %ebp
  101a11:	89 e5                	mov    %esp,%ebp
  101a13:	53                   	push   %ebx
  101a14:	83 ec 04             	sub    $0x4,%esp
  101a17:	8b 5d 08             	mov    0x8(%ebp),%ebx
  101a1a:	8b 45 0c             	mov    0xc(%ebp),%eax
	if(off > ip->size)
  101a1d:	3b 43 18             	cmp    0x18(%ebx),%eax
  101a20:	76 0e                	jbe    101a30 <checki+0x20>
		return -1;
	//cprintf("checki: calling bcheck\n");
    return bcheck(ip->dev, bmap(ip, off/BSIZE, 0));

 }
  101a22:	83 c4 04             	add    $0x4,%esp
  101a25:	b8 ff ff ff ff       	mov    $0xffffffff,%eax
  101a2a:	5b                   	pop    %ebx
  101a2b:	5d                   	pop    %ebp
  101a2c:	c3                   	ret    
  101a2d:	8d 76 00             	lea    0x0(%esi),%esi
checki(struct inode *ip, int off)
{
	if(off > ip->size)
		return -1;
	//cprintf("checki: calling bcheck\n");
    return bcheck(ip->dev, bmap(ip, off/BSIZE, 0));
  101a30:	89 c2                	mov    %eax,%edx
  101a32:	31 c9                	xor    %ecx,%ecx
  101a34:	c1 fa 1f             	sar    $0x1f,%edx
  101a37:	c1 ea 17             	shr    $0x17,%edx
  101a3a:	01 c2                	add    %eax,%edx
  101a3c:	89 d8                	mov    %ebx,%eax
  101a3e:	c1 fa 09             	sar    $0x9,%edx
  101a41:	e8 da f9 ff ff       	call   101420 <bmap>
  101a46:	89 45 0c             	mov    %eax,0xc(%ebp)
  101a49:	8b 03                	mov    (%ebx),%eax
  101a4b:	89 45 08             	mov    %eax,0x8(%ebp)

 }
  101a4e:	83 c4 04             	add    $0x4,%esp
  101a51:	5b                   	pop    %ebx
  101a52:	5d                   	pop    %ebp
checki(struct inode *ip, int off)
{
	if(off > ip->size)
		return -1;
	//cprintf("checki: calling bcheck\n");
    return bcheck(ip->dev, bmap(ip, off/BSIZE, 0));
  101a53:	e9 28 e6 ff ff       	jmp    100080 <bcheck>
  101a58:	90                   	nop
  101a59:	8d b4 26 00 00 00 00 	lea    0x0(%esi,%eiz,1),%esi

00101a60 <ialloc>:
}

// Allocate a new inode with the given type on device dev.
struct inode*
ialloc(uint dev, short type)
{
  101a60:	55                   	push   %ebp
  101a61:	89 e5                	mov    %esp,%ebp
  101a63:	57                   	push   %edi
  101a64:	56                   	push   %esi
  101a65:	53                   	push   %ebx
  101a66:	83 ec 3c             	sub    $0x3c,%esp
  101a69:	0f b7 45 0c          	movzwl 0xc(%ebp),%eax
  int inum;
  struct buf *bp;
  struct dinode *dip;
  struct superblock sb;

  readsb(dev, &sb);
  101a6d:	8d 55 dc             	lea    -0x24(%ebp),%edx
}

// Allocate a new inode with the given type on device dev.
struct inode*
ialloc(uint dev, short type)
{
  101a70:	66 89 45 d6          	mov    %ax,-0x2a(%ebp)
  int inum;
  struct buf *bp;
  struct dinode *dip;
  struct superblock sb;

  readsb(dev, &sb);
  101a74:	8b 45 08             	mov    0x8(%ebp),%eax
  101a77:	e8 84 f8 ff ff       	call   101300 <readsb>
  for(inum = 1; inum < sb.ninodes; inum++){  // loop over inode blocks
  101a7c:	83 7d e4 01          	cmpl   $0x1,-0x1c(%ebp)
  101a80:	0f 86 96 00 00 00    	jbe    101b1c <ialloc+0xbc>
  101a86:	be 01 00 00 00       	mov    $0x1,%esi
  101a8b:	bb 01 00 00 00       	mov    $0x1,%ebx
  101a90:	eb 18                	jmp    101aaa <ialloc+0x4a>
  101a92:	8d b6 00 00 00 00    	lea    0x0(%esi),%esi
  101a98:	83 c3 01             	add    $0x1,%ebx
      dip->type = type;
      bwrite(bp);   // mark it allocated on the disk
      brelse(bp);
      return iget(dev, inum);
    }
    brelse(bp);
  101a9b:	89 3c 24             	mov    %edi,(%esp)
  struct buf *bp;
  struct dinode *dip;
  struct superblock sb;

  readsb(dev, &sb);
  for(inum = 1; inum < sb.ninodes; inum++){  // loop over inode blocks
  101a9e:	89 de                	mov    %ebx,%esi
      dip->type = type;
      bwrite(bp);   // mark it allocated on the disk
      brelse(bp);
      return iget(dev, inum);
    }
    brelse(bp);
  101aa0:	e8 5b e5 ff ff       	call   100000 <brelse>
  struct buf *bp;
  struct dinode *dip;
  struct superblock sb;

  readsb(dev, &sb);
  for(inum = 1; inum < sb.ninodes; inum++){  // loop over inode blocks
  101aa5:	3b 5d e4             	cmp    -0x1c(%ebp),%ebx
  101aa8:	73 72                	jae    101b1c <ialloc+0xbc>
    bp = bread(dev, IBLOCK(inum));
  101aaa:	89 f0                	mov    %esi,%eax
  101aac:	c1 e8 03             	shr    $0x3,%eax
  101aaf:	83 c0 02             	add    $0x2,%eax
  101ab2:	89 44 24 04          	mov    %eax,0x4(%esp)
  101ab6:	8b 45 08             	mov    0x8(%ebp),%eax
  101ab9:	89 04 24             	mov    %eax,(%esp)
  101abc:	e8 6f e6 ff ff       	call   100130 <bread>
  101ac1:	89 c7                	mov    %eax,%edi
    dip = (struct dinode*)bp->data + inum%IPB;
  101ac3:	89 f0                	mov    %esi,%eax
  101ac5:	83 e0 07             	and    $0x7,%eax
  101ac8:	c1 e0 06             	shl    $0x6,%eax
  101acb:	8d 54 07 18          	lea    0x18(%edi,%eax,1),%edx
    if(dip->type == 0){  // a free inode
  101acf:	66 83 3a 00          	cmpw   $0x0,(%edx)
  101ad3:	75 c3                	jne    101a98 <ialloc+0x38>
      memset(dip, 0, sizeof(*dip));
  101ad5:	89 14 24             	mov    %edx,(%esp)
  101ad8:	89 55 d0             	mov    %edx,-0x30(%ebp)
  101adb:	c7 44 24 08 40 00 00 	movl   $0x40,0x8(%esp)
  101ae2:	00 
  101ae3:	c7 44 24 04 00 00 00 	movl   $0x0,0x4(%esp)
  101aea:	00 
  101aeb:	e8 b0 2c 00 00       	call   1047a0 <memset>
      dip->type = type;
  101af0:	8b 55 d0             	mov    -0x30(%ebp),%edx
  101af3:	0f b7 45 d6          	movzwl -0x2a(%ebp),%eax
  101af7:	66 89 02             	mov    %ax,(%edx)
      bwrite(bp);   // mark it allocated on the disk
  101afa:	89 3c 24             	mov    %edi,(%esp)
  101afd:	e8 fe e5 ff ff       	call   100100 <bwrite>
      brelse(bp);
  101b02:	89 3c 24             	mov    %edi,(%esp)
  101b05:	e8 f6 e4 ff ff       	call   100000 <brelse>
      return iget(dev, inum);
  101b0a:	8b 45 08             	mov    0x8(%ebp),%eax
  101b0d:	89 f2                	mov    %esi,%edx
  101b0f:	e8 2c f7 ff ff       	call   101240 <iget>
    }
    brelse(bp);
  }
  panic("ialloc: no inodes");
}
  101b14:	83 c4 3c             	add    $0x3c,%esp
  101b17:	5b                   	pop    %ebx
  101b18:	5e                   	pop    %esi
  101b19:	5f                   	pop    %edi
  101b1a:	5d                   	pop    %ebp
  101b1b:	c3                   	ret    
      brelse(bp);
      return iget(dev, inum);
    }
    brelse(bp);
  }
  panic("ialloc: no inodes");
  101b1c:	c7 04 24 cf 69 10 00 	movl   $0x1069cf,(%esp)
  101b23:	e8 38 ee ff ff       	call   100960 <panic>
  101b28:	90                   	nop
  101b29:	8d b4 26 00 00 00 00 	lea    0x0(%esi,%eiz,1),%esi

00101b30 <bfree>:
}

// Free a disk block.
static void
bfree(int dev, uint b)
{
  101b30:	55                   	push   %ebp
  101b31:	89 e5                	mov    %esp,%ebp
  101b33:	57                   	push   %edi
  101b34:	56                   	push   %esi
  101b35:	89 c6                	mov    %eax,%esi
  101b37:	53                   	push   %ebx
  101b38:	89 d3                	mov    %edx,%ebx
  101b3a:	83 ec 2c             	sub    $0x2c,%esp
static void
bzero(int dev, int bno)
{
  struct buf *bp;
  
  bp = bread(dev, bno);
  101b3d:	89 54 24 04          	mov    %edx,0x4(%esp)
  101b41:	89 04 24             	mov    %eax,(%esp)
  101b44:	e8 e7 e5 ff ff       	call   100130 <bread>
  memset(bp->data, 0, BSIZE);
  101b49:	c7 44 24 08 00 02 00 	movl   $0x200,0x8(%esp)
  101b50:	00 
  101b51:	c7 44 24 04 00 00 00 	movl   $0x0,0x4(%esp)
  101b58:	00 
static void
bzero(int dev, int bno)
{
  struct buf *bp;
  
  bp = bread(dev, bno);
  101b59:	89 c7                	mov    %eax,%edi
  memset(bp->data, 0, BSIZE);
  101b5b:	8d 40 18             	lea    0x18(%eax),%eax
  101b5e:	89 04 24             	mov    %eax,(%esp)
  101b61:	e8 3a 2c 00 00       	call   1047a0 <memset>
  bwrite(bp);
  101b66:	89 3c 24             	mov    %edi,(%esp)
  101b69:	e8 92 e5 ff ff       	call   100100 <bwrite>
  brelse(bp);
  101b6e:	89 3c 24             	mov    %edi,(%esp)
  101b71:	e8 8a e4 ff ff       	call   100000 <brelse>
  struct superblock sb;
  int bi, m;

  bzero(dev, b);

  readsb(dev, &sb);
  101b76:	89 f0                	mov    %esi,%eax
  101b78:	8d 55 dc             	lea    -0x24(%ebp),%edx
  101b7b:	e8 80 f7 ff ff       	call   101300 <readsb>
  bp = bread(dev, BBLOCK(b, sb.ninodes));
  101b80:	8b 45 e4             	mov    -0x1c(%ebp),%eax
  101b83:	89 da                	mov    %ebx,%edx
  101b85:	c1 ea 0c             	shr    $0xc,%edx
  101b88:	89 34 24             	mov    %esi,(%esp)
  bi = b % BPB;
  m = 1 << (bi % 8);
  101b8b:	be 01 00 00 00       	mov    $0x1,%esi
  int bi, m;

  bzero(dev, b);

  readsb(dev, &sb);
  bp = bread(dev, BBLOCK(b, sb.ninodes));
  101b90:	c1 e8 03             	shr    $0x3,%eax
  101b93:	8d 44 10 03          	lea    0x3(%eax,%edx,1),%eax
  101b97:	89 44 24 04          	mov    %eax,0x4(%esp)
  101b9b:	e8 90 e5 ff ff       	call   100130 <bread>
  bi = b % BPB;
  101ba0:	89 da                	mov    %ebx,%edx
  m = 1 << (bi % 8);
  101ba2:	89 d9                	mov    %ebx,%ecx

  bzero(dev, b);

  readsb(dev, &sb);
  bp = bread(dev, BBLOCK(b, sb.ninodes));
  bi = b % BPB;
  101ba4:	81 e2 ff 0f 00 00    	and    $0xfff,%edx
  m = 1 << (bi % 8);
  101baa:	83 e1 07             	and    $0x7,%ecx
  if((bp->data[bi/8] & m) == 0)
  101bad:	c1 fa 03             	sar    $0x3,%edx
  bzero(dev, b);

  readsb(dev, &sb);
  bp = bread(dev, BBLOCK(b, sb.ninodes));
  bi = b % BPB;
  m = 1 << (bi % 8);
  101bb0:	d3 e6                	shl    %cl,%esi
  if((bp->data[bi/8] & m) == 0)
  101bb2:	0f b6 4c 10 18       	movzbl 0x18(%eax,%edx,1),%ecx
  int bi, m;

  bzero(dev, b);

  readsb(dev, &sb);
  bp = bread(dev, BBLOCK(b, sb.ninodes));
  101bb7:	89 c7                	mov    %eax,%edi
  bi = b % BPB;
  m = 1 << (bi % 8);
  if((bp->data[bi/8] & m) == 0)
  101bb9:	0f b6 c1             	movzbl %cl,%eax
  101bbc:	85 f0                	test   %esi,%eax
  101bbe:	74 22                	je     101be2 <bfree+0xb2>
    panic("freeing free block");
  bp->data[bi/8] &= ~m;  // Mark block free on disk.
  101bc0:	89 f0                	mov    %esi,%eax
  101bc2:	f7 d0                	not    %eax
  101bc4:	21 c8                	and    %ecx,%eax
  101bc6:	88 44 17 18          	mov    %al,0x18(%edi,%edx,1)
  bwrite(bp);
  101bca:	89 3c 24             	mov    %edi,(%esp)
  101bcd:	e8 2e e5 ff ff       	call   100100 <bwrite>
  brelse(bp);
  101bd2:	89 3c 24             	mov    %edi,(%esp)
  101bd5:	e8 26 e4 ff ff       	call   100000 <brelse>
}
  101bda:	83 c4 2c             	add    $0x2c,%esp
  101bdd:	5b                   	pop    %ebx
  101bde:	5e                   	pop    %esi
  101bdf:	5f                   	pop    %edi
  101be0:	5d                   	pop    %ebp
  101be1:	c3                   	ret    
  readsb(dev, &sb);
  bp = bread(dev, BBLOCK(b, sb.ninodes));
  bi = b % BPB;
  m = 1 << (bi % 8);
  if((bp->data[bi/8] & m) == 0)
    panic("freeing free block");
  101be2:	c7 04 24 e1 69 10 00 	movl   $0x1069e1,(%esp)
  101be9:	e8 72 ed ff ff       	call   100960 <panic>
  101bee:	66 90                	xchg   %ax,%ax

00101bf0 <iput>:
}

// Caller holds reference to unlocked ip.  Drop reference.
void
iput(struct inode *ip)
{
  101bf0:	55                   	push   %ebp
  101bf1:	89 e5                	mov    %esp,%ebp
  101bf3:	57                   	push   %edi
  101bf4:	56                   	push   %esi
  101bf5:	53                   	push   %ebx
  101bf6:	83 ec 2c             	sub    $0x2c,%esp
  101bf9:	8b 7d 08             	mov    0x8(%ebp),%edi
  acquire(&icache.lock);
  101bfc:	c7 04 24 00 ab 10 00 	movl   $0x10ab00,(%esp)
  101c03:	e8 28 2b 00 00       	call   104730 <acquire>
  if(ip->ref == 1 && (ip->flags & I_VALID) && ip->nlink == 0){
  101c08:	8b 47 08             	mov    0x8(%edi),%eax
  101c0b:	83 f8 01             	cmp    $0x1,%eax
  101c0e:	0f 85 a8 00 00 00    	jne    101cbc <iput+0xcc>
  101c14:	8b 57 0c             	mov    0xc(%edi),%edx
  101c17:	f6 c2 02             	test   $0x2,%dl
  101c1a:	0f 84 9c 00 00 00    	je     101cbc <iput+0xcc>
  101c20:	66 83 7f 16 00       	cmpw   $0x0,0x16(%edi)
  101c25:	0f 85 91 00 00 00    	jne    101cbc <iput+0xcc>
    // inode is no longer used: truncate and free inode.
    if(ip->flags & I_BUSY)
  101c2b:	f6 c2 01             	test   $0x1,%dl
  101c2e:	66 90                	xchg   %ax,%ax
  101c30:	0f 85 9d 01 00 00    	jne    101dd3 <iput+0x1e3>
      panic("iput busy");
    ip->flags |= I_BUSY;
  101c36:	83 ca 01             	or     $0x1,%edx
    release(&icache.lock);
  101c39:	89 fb                	mov    %edi,%ebx
  acquire(&icache.lock);
  if(ip->ref == 1 && (ip->flags & I_VALID) && ip->nlink == 0){
    // inode is no longer used: truncate and free inode.
    if(ip->flags & I_BUSY)
      panic("iput busy");
    ip->flags |= I_BUSY;
  101c3b:	89 57 0c             	mov    %edx,0xc(%edi)
  release(&icache.lock);
}

// Caller holds reference to unlocked ip.  Drop reference.
void
iput(struct inode *ip)
  101c3e:	8d 77 2c             	lea    0x2c(%edi),%esi
  if(ip->ref == 1 && (ip->flags & I_VALID) && ip->nlink == 0){
    // inode is no longer used: truncate and free inode.
    if(ip->flags & I_BUSY)
      panic("iput busy");
    ip->flags |= I_BUSY;
    release(&icache.lock);
  101c41:	c7 04 24 00 ab 10 00 	movl   $0x10ab00,(%esp)
  101c48:	e8 a3 2a 00 00       	call   1046f0 <release>
  101c4d:	eb 07                	jmp    101c56 <iput+0x66>
  uint *a;

  for(i = 0; i < NDIRECT; i++){
    if(ip->addrs[i]){
      bfree(ip->dev, ip->addrs[i]);
      ip->addrs[i] = 0;
  101c4f:	83 c3 04             	add    $0x4,%ebx
{
  int i, j, k;
  struct buf *bp, *bp2;
  uint *a;

  for(i = 0; i < NDIRECT; i++){
  101c52:	39 f3                	cmp    %esi,%ebx
  101c54:	74 1c                	je     101c72 <iput+0x82>
    if(ip->addrs[i]){
  101c56:	8b 53 1c             	mov    0x1c(%ebx),%edx
  101c59:	85 d2                	test   %edx,%edx
  101c5b:	74 f2                	je     101c4f <iput+0x5f>
      bfree(ip->dev, ip->addrs[i]);
  101c5d:	8b 07                	mov    (%edi),%eax
  101c5f:	e8 cc fe ff ff       	call   101b30 <bfree>
      ip->addrs[i] = 0;
  101c64:	c7 43 1c 00 00 00 00 	movl   $0x0,0x1c(%ebx)
  101c6b:	83 c3 04             	add    $0x4,%ebx
{
  int i, j, k;
  struct buf *bp, *bp2;
  uint *a;

  for(i = 0; i < NDIRECT; i++){
  101c6e:	39 f3                	cmp    %esi,%ebx
  101c70:	75 e4                	jne    101c56 <iput+0x66>
      bfree(ip->dev, ip->addrs[i]);
      ip->addrs[i] = 0;
    }
  }
  
  if(ip->addrs[INDIRECT]){
  101c72:	8b 47 48             	mov    0x48(%edi),%eax
  101c75:	85 c0                	test   %eax,%eax
  101c77:	0f 85 e9 00 00 00    	jne    101d66 <iput+0x176>
    brelse(bp);
    ip->addrs[INDIRECT] = 0;
  }

  //free double indirect blocks -- NEW CODE
  if(ip->addrs[DINDIRECT]){
  101c7d:	8b 47 4c             	mov    0x4c(%edi),%eax
  101c80:	85 c0                	test   %eax,%eax
  101c82:	75 51                	jne    101cd5 <iput+0xe5>
	      }
	      brelse(bp);
	      ip->addrs[DINDIRECT] = 0;
  }

  ip->size = 0;
  101c84:	c7 47 18 00 00 00 00 	movl   $0x0,0x18(%edi)
  iupdate(ip);
  101c8b:	89 3c 24             	mov    %edi,(%esp)
  101c8e:	e8 8d fa ff ff       	call   101720 <iupdate>
    if(ip->flags & I_BUSY)
      panic("iput busy");
    ip->flags |= I_BUSY;
    release(&icache.lock);
    itrunc(ip);
    ip->type = 0;
  101c93:	66 c7 47 10 00 00    	movw   $0x0,0x10(%edi)
    iupdate(ip);
  101c99:	89 3c 24             	mov    %edi,(%esp)
  101c9c:	e8 7f fa ff ff       	call   101720 <iupdate>
    acquire(&icache.lock);
  101ca1:	c7 04 24 00 ab 10 00 	movl   $0x10ab00,(%esp)
  101ca8:	e8 83 2a 00 00       	call   104730 <acquire>
    ip->flags &= ~I_BUSY;
  101cad:	83 67 0c fe          	andl   $0xfffffffe,0xc(%edi)
    wakeup(ip);
  101cb1:	89 3c 24             	mov    %edi,(%esp)
  101cb4:	e8 37 19 00 00       	call   1035f0 <wakeup>
  101cb9:	8b 47 08             	mov    0x8(%edi),%eax
  }
  ip->ref--;
  101cbc:	83 e8 01             	sub    $0x1,%eax
  101cbf:	89 47 08             	mov    %eax,0x8(%edi)
  release(&icache.lock);
  101cc2:	c7 45 08 00 ab 10 00 	movl   $0x10ab00,0x8(%ebp)
}
  101cc9:	83 c4 2c             	add    $0x2c,%esp
  101ccc:	5b                   	pop    %ebx
  101ccd:	5e                   	pop    %esi
  101cce:	5f                   	pop    %edi
  101ccf:	5d                   	pop    %ebp
    acquire(&icache.lock);
    ip->flags &= ~I_BUSY;
    wakeup(ip);
  }
  ip->ref--;
  release(&icache.lock);
  101cd0:	e9 1b 2a 00 00       	jmp    1046f0 <release>
    ip->addrs[INDIRECT] = 0;
  }

  //free double indirect blocks -- NEW CODE
  if(ip->addrs[DINDIRECT]){
	  bp = bread(ip->dev, ip->addrs[DINDIRECT]);
  101cd5:	89 44 24 04          	mov    %eax,0x4(%esp)
  101cd9:	8b 07                	mov    (%edi),%eax
  101cdb:	89 04 24             	mov    %eax,(%esp)
  101cde:	e8 4d e4 ff ff       	call   100130 <bread>
	      a = (uint*)bp->data;
  101ce3:	c7 45 e4 00 00 00 00 	movl   $0x0,-0x1c(%ebp)
    ip->addrs[INDIRECT] = 0;
  }

  //free double indirect blocks -- NEW CODE
  if(ip->addrs[DINDIRECT]){
	  bp = bread(ip->dev, ip->addrs[DINDIRECT]);
  101cea:	89 45 d8             	mov    %eax,-0x28(%ebp)
	      a = (uint*)bp->data;
  101ced:	83 c0 18             	add    $0x18,%eax
  101cf0:	89 45 dc             	mov    %eax,-0x24(%ebp)
  101cf3:	31 c0                	xor    %eax,%eax
  101cf5:	eb 13                	jmp    101d0a <iput+0x11a>
  101cf7:	90                   	nop
	      for(j = 0; j < NINDIRECT; j++){
  101cf8:	83 45 e4 01          	addl   $0x1,-0x1c(%ebp)
  101cfc:	8b 45 e4             	mov    -0x1c(%ebp),%eax
  101cff:	3d 80 00 00 00       	cmp    $0x80,%eax
  101d04:	0f 84 9b 00 00 00    	je     101da5 <iput+0x1b5>
	        if(a[j]){
  101d0a:	8b 55 dc             	mov    -0x24(%ebp),%edx
  101d0d:	8d 04 82             	lea    (%edx,%eax,4),%eax
  101d10:	89 45 e0             	mov    %eax,-0x20(%ebp)
  101d13:	8b 00                	mov    (%eax),%eax
  101d15:	85 c0                	test   %eax,%eax
  101d17:	74 df                	je     101cf8 <iput+0x108>
	          bp2 = bread(ip->dev, a[j]);
  101d19:	89 44 24 04          	mov    %eax,0x4(%esp)
  101d1d:	8b 07                	mov    (%edi),%eax
	          uint* b = (uint*)bp2->data;
  101d1f:	31 db                	xor    %ebx,%ebx
  if(ip->addrs[DINDIRECT]){
	  bp = bread(ip->dev, ip->addrs[DINDIRECT]);
	      a = (uint*)bp->data;
	      for(j = 0; j < NINDIRECT; j++){
	        if(a[j]){
	          bp2 = bread(ip->dev, a[j]);
  101d21:	89 04 24             	mov    %eax,(%esp)
  101d24:	e8 07 e4 ff ff       	call   100130 <bread>
	          uint* b = (uint*)bp2->data;
  101d29:	8d 70 18             	lea    0x18(%eax),%esi
  101d2c:	31 c0                	xor    %eax,%eax
  101d2e:	eb 0d                	jmp    101d3d <iput+0x14d>
	          for(k = 0; k < NINDIRECT; k++){
  101d30:	83 c3 01             	add    $0x1,%ebx
  101d33:	81 fb 80 00 00 00    	cmp    $0x80,%ebx
  101d39:	89 d8                	mov    %ebx,%eax
  101d3b:	74 1b                	je     101d58 <iput+0x168>
	        	  if(b[k]){
  101d3d:	8b 14 86             	mov    (%esi,%eax,4),%edx
  101d40:	85 d2                	test   %edx,%edx
  101d42:	74 ec                	je     101d30 <iput+0x140>
	        		  bfree(ip->dev, b[k]);
  101d44:	8b 07                	mov    (%edi),%eax
	      a = (uint*)bp->data;
	      for(j = 0; j < NINDIRECT; j++){
	        if(a[j]){
	          bp2 = bread(ip->dev, a[j]);
	          uint* b = (uint*)bp2->data;
	          for(k = 0; k < NINDIRECT; k++){
  101d46:	83 c3 01             	add    $0x1,%ebx
	        	  if(b[k]){
	        		  bfree(ip->dev, b[k]);
  101d49:	e8 e2 fd ff ff       	call   101b30 <bfree>
	      a = (uint*)bp->data;
	      for(j = 0; j < NINDIRECT; j++){
	        if(a[j]){
	          bp2 = bread(ip->dev, a[j]);
	          uint* b = (uint*)bp2->data;
	          for(k = 0; k < NINDIRECT; k++){
  101d4e:	81 fb 80 00 00 00    	cmp    $0x80,%ebx
  101d54:	89 d8                	mov    %ebx,%eax
  101d56:	75 e5                	jne    101d3d <iput+0x14d>
	        	  if(b[k]){
	        		  bfree(ip->dev, b[k]);
	        	  }

	          }
	          bfree(ip->dev, a[j]);
  101d58:	8b 45 e0             	mov    -0x20(%ebp),%eax
  101d5b:	8b 10                	mov    (%eax),%edx
  101d5d:	8b 07                	mov    (%edi),%eax
  101d5f:	e8 cc fd ff ff       	call   101b30 <bfree>
  101d64:	eb 92                	jmp    101cf8 <iput+0x108>
      ip->addrs[i] = 0;
    }
  }
  
  if(ip->addrs[INDIRECT]){
    bp = bread(ip->dev, ip->addrs[INDIRECT]);
  101d66:	89 44 24 04          	mov    %eax,0x4(%esp)
  101d6a:	8b 07                	mov    (%edi),%eax
    a = (uint*)bp->data;
  101d6c:	31 db                	xor    %ebx,%ebx
      ip->addrs[i] = 0;
    }
  }
  
  if(ip->addrs[INDIRECT]){
    bp = bread(ip->dev, ip->addrs[INDIRECT]);
  101d6e:	89 04 24             	mov    %eax,(%esp)
  101d71:	e8 ba e3 ff ff       	call   100130 <bread>
    a = (uint*)bp->data;
  101d76:	89 c6                	mov    %eax,%esi
      ip->addrs[i] = 0;
    }
  }
  
  if(ip->addrs[INDIRECT]){
    bp = bread(ip->dev, ip->addrs[INDIRECT]);
  101d78:	89 45 e4             	mov    %eax,-0x1c(%ebp)
    a = (uint*)bp->data;
  101d7b:	83 c6 18             	add    $0x18,%esi
  101d7e:	31 c0                	xor    %eax,%eax
  101d80:	eb 13                	jmp    101d95 <iput+0x1a5>
  101d82:	8d b6 00 00 00 00    	lea    0x0(%esi),%esi
    for(j = 0; j < NINDIRECT; j++){
  101d88:	83 c3 01             	add    $0x1,%ebx
  101d8b:	81 fb 80 00 00 00    	cmp    $0x80,%ebx
  101d91:	89 d8                	mov    %ebx,%eax
  101d93:	74 27                	je     101dbc <iput+0x1cc>
      if(a[j])
  101d95:	8b 14 86             	mov    (%esi,%eax,4),%edx
  101d98:	85 d2                	test   %edx,%edx
  101d9a:	74 ec                	je     101d88 <iput+0x198>
        bfree(ip->dev, a[j]);
  101d9c:	8b 07                	mov    (%edi),%eax
  101d9e:	e8 8d fd ff ff       	call   101b30 <bfree>
  101da3:	eb e3                	jmp    101d88 <iput+0x198>

	          }
	          bfree(ip->dev, a[j]);
	        }
	      }
	      brelse(bp);
  101da5:	8b 55 d8             	mov    -0x28(%ebp),%edx
  101da8:	89 14 24             	mov    %edx,(%esp)
  101dab:	e8 50 e2 ff ff       	call   100000 <brelse>
	      ip->addrs[DINDIRECT] = 0;
  101db0:	c7 47 4c 00 00 00 00 	movl   $0x0,0x4c(%edi)
  101db7:	e9 c8 fe ff ff       	jmp    101c84 <iput+0x94>
    a = (uint*)bp->data;
    for(j = 0; j < NINDIRECT; j++){
      if(a[j])
        bfree(ip->dev, a[j]);
    }
    brelse(bp);
  101dbc:	8b 45 e4             	mov    -0x1c(%ebp),%eax
  101dbf:	89 04 24             	mov    %eax,(%esp)
  101dc2:	e8 39 e2 ff ff       	call   100000 <brelse>
    ip->addrs[INDIRECT] = 0;
  101dc7:	c7 47 48 00 00 00 00 	movl   $0x0,0x48(%edi)
  101dce:	e9 aa fe ff ff       	jmp    101c7d <iput+0x8d>
{
  acquire(&icache.lock);
  if(ip->ref == 1 && (ip->flags & I_VALID) && ip->nlink == 0){
    // inode is no longer used: truncate and free inode.
    if(ip->flags & I_BUSY)
      panic("iput busy");
  101dd3:	c7 04 24 f4 69 10 00 	movl   $0x1069f4,(%esp)
  101dda:	e8 81 eb ff ff       	call   100960 <panic>
  101ddf:	90                   	nop

00101de0 <dirlink>:
}

// Write a new directory entry (name, ino) into the directory dp.
int
dirlink(struct inode *dp, char *name, uint ino)
{
  101de0:	55                   	push   %ebp
  101de1:	89 e5                	mov    %esp,%ebp
  101de3:	57                   	push   %edi
  101de4:	56                   	push   %esi
  101de5:	53                   	push   %ebx
  101de6:	83 ec 2c             	sub    $0x2c,%esp
  101de9:	8b 75 08             	mov    0x8(%ebp),%esi
  int off;
  struct dirent de;
  struct inode *ip;

  // Check that name is not present.
  if((ip = dirlookup(dp, name, 0)) != 0){
  101dec:	8b 45 0c             	mov    0xc(%ebp),%eax
  101def:	c7 44 24 08 00 00 00 	movl   $0x0,0x8(%esp)
  101df6:	00 
  101df7:	89 34 24             	mov    %esi,(%esp)
  101dfa:	89 44 24 04          	mov    %eax,0x4(%esp)
  101dfe:	e8 0d fb ff ff       	call   101910 <dirlookup>
  101e03:	85 c0                	test   %eax,%eax
  101e05:	0f 85 89 00 00 00    	jne    101e94 <dirlink+0xb4>
    iput(ip);
    return -1;
  }

  // Look for an empty dirent.
  for(off = 0; off < dp->size; off += sizeof(de)){
  101e0b:	8b 7e 18             	mov    0x18(%esi),%edi
  101e0e:	85 ff                	test   %edi,%edi
  101e10:	0f 84 8d 00 00 00    	je     101ea3 <dirlink+0xc3>
  struct inode *ip;

  // Check that name is not present.
  if((ip = dirlookup(dp, name, 0)) != 0){
    iput(ip);
    return -1;
  101e16:	8d 7d d8             	lea    -0x28(%ebp),%edi
  101e19:	31 db                	xor    %ebx,%ebx
  101e1b:	eb 0b                	jmp    101e28 <dirlink+0x48>
  101e1d:	8d 76 00             	lea    0x0(%esi),%esi
  }

  // Look for an empty dirent.
  for(off = 0; off < dp->size; off += sizeof(de)){
  101e20:	83 c3 10             	add    $0x10,%ebx
  101e23:	39 5e 18             	cmp    %ebx,0x18(%esi)
  101e26:	76 24                	jbe    101e4c <dirlink+0x6c>
    if(readi(dp, (char*)&de, off, sizeof(de)) != sizeof(de))
  101e28:	c7 44 24 0c 10 00 00 	movl   $0x10,0xc(%esp)
  101e2f:	00 
  101e30:	89 5c 24 08          	mov    %ebx,0x8(%esp)
  101e34:	89 7c 24 04          	mov    %edi,0x4(%esp)
  101e38:	89 34 24             	mov    %esi,(%esp)
  101e3b:	e8 d0 f7 ff ff       	call   101610 <readi>
  101e40:	83 f8 10             	cmp    $0x10,%eax
  101e43:	75 65                	jne    101eaa <dirlink+0xca>
      panic("dirlink read");
    if(de.inum == 0)
  101e45:	66 83 7d d8 00       	cmpw   $0x0,-0x28(%ebp)
  101e4a:	75 d4                	jne    101e20 <dirlink+0x40>
      break;
  }

  strncpy(de.name, name, DIRSIZ);
  101e4c:	8b 45 0c             	mov    0xc(%ebp),%eax
  101e4f:	c7 44 24 08 0e 00 00 	movl   $0xe,0x8(%esp)
  101e56:	00 
  101e57:	89 44 24 04          	mov    %eax,0x4(%esp)
  101e5b:	8d 45 da             	lea    -0x26(%ebp),%eax
  101e5e:	89 04 24             	mov    %eax,(%esp)
  101e61:	e8 8a 2a 00 00       	call   1048f0 <strncpy>
  de.inum = ino;
  101e66:	8b 45 10             	mov    0x10(%ebp),%eax
  if(writei(dp, (char*)&de, off, sizeof(de)) != sizeof(de))
  101e69:	c7 44 24 0c 10 00 00 	movl   $0x10,0xc(%esp)
  101e70:	00 
  101e71:	89 5c 24 08          	mov    %ebx,0x8(%esp)
  101e75:	89 7c 24 04          	mov    %edi,0x4(%esp)
    if(de.inum == 0)
      break;
  }

  strncpy(de.name, name, DIRSIZ);
  de.inum = ino;
  101e79:	66 89 45 d8          	mov    %ax,-0x28(%ebp)
  if(writei(dp, (char*)&de, off, sizeof(de)) != sizeof(de))
  101e7d:	89 34 24             	mov    %esi,(%esp)
  101e80:	e8 2b f9 ff ff       	call   1017b0 <writei>
  101e85:	83 f8 10             	cmp    $0x10,%eax
  101e88:	75 2c                	jne    101eb6 <dirlink+0xd6>
    panic("dirlink");
  101e8a:	31 c0                	xor    %eax,%eax
  
  return 0;
}
  101e8c:	83 c4 2c             	add    $0x2c,%esp
  101e8f:	5b                   	pop    %ebx
  101e90:	5e                   	pop    %esi
  101e91:	5f                   	pop    %edi
  101e92:	5d                   	pop    %ebp
  101e93:	c3                   	ret    
  struct dirent de;
  struct inode *ip;

  // Check that name is not present.
  if((ip = dirlookup(dp, name, 0)) != 0){
    iput(ip);
  101e94:	89 04 24             	mov    %eax,(%esp)
  101e97:	e8 54 fd ff ff       	call   101bf0 <iput>
  101e9c:	b8 ff ff ff ff       	mov    $0xffffffff,%eax
    return -1;
  101ea1:	eb e9                	jmp    101e8c <dirlink+0xac>
  }

  // Look for an empty dirent.
  for(off = 0; off < dp->size; off += sizeof(de)){
  101ea3:	8d 7d d8             	lea    -0x28(%ebp),%edi
  101ea6:	31 db                	xor    %ebx,%ebx
  101ea8:	eb a2                	jmp    101e4c <dirlink+0x6c>
    if(readi(dp, (char*)&de, off, sizeof(de)) != sizeof(de))
      panic("dirlink read");
  101eaa:	c7 04 24 fe 69 10 00 	movl   $0x1069fe,(%esp)
  101eb1:	e8 aa ea ff ff       	call   100960 <panic>
  }

  strncpy(de.name, name, DIRSIZ);
  de.inum = ino;
  if(writei(dp, (char*)&de, off, sizeof(de)) != sizeof(de))
    panic("dirlink");
  101eb6:	c7 04 24 0b 6a 10 00 	movl   $0x106a0b,(%esp)
  101ebd:	e8 9e ea ff ff       	call   100960 <panic>
  101ec2:	8d b4 26 00 00 00 00 	lea    0x0(%esi,%eiz,1),%esi
  101ec9:	8d bc 27 00 00 00 00 	lea    0x0(%edi,%eiz,1),%edi

00101ed0 <iunlock>:
}

// Unlock the given inode.
void
iunlock(struct inode *ip)
{
  101ed0:	55                   	push   %ebp
  101ed1:	89 e5                	mov    %esp,%ebp
  101ed3:	53                   	push   %ebx
  101ed4:	83 ec 14             	sub    $0x14,%esp
  101ed7:	8b 5d 08             	mov    0x8(%ebp),%ebx
  if(ip == 0 || !(ip->flags & I_BUSY) || ip->ref < 1)
  101eda:	85 db                	test   %ebx,%ebx
  101edc:	74 36                	je     101f14 <iunlock+0x44>
  101ede:	f6 43 0c 01          	testb  $0x1,0xc(%ebx)
  101ee2:	74 30                	je     101f14 <iunlock+0x44>
  101ee4:	8b 43 08             	mov    0x8(%ebx),%eax
  101ee7:	85 c0                	test   %eax,%eax
  101ee9:	7e 29                	jle    101f14 <iunlock+0x44>
    panic("iunlock");

  acquire(&icache.lock);
  101eeb:	c7 04 24 00 ab 10 00 	movl   $0x10ab00,(%esp)
  101ef2:	e8 39 28 00 00       	call   104730 <acquire>
  ip->flags &= ~I_BUSY;
  101ef7:	83 63 0c fe          	andl   $0xfffffffe,0xc(%ebx)
  wakeup(ip);
  101efb:	89 1c 24             	mov    %ebx,(%esp)
  101efe:	e8 ed 16 00 00       	call   1035f0 <wakeup>
  release(&icache.lock);
  101f03:	c7 45 08 00 ab 10 00 	movl   $0x10ab00,0x8(%ebp)
}
  101f0a:	83 c4 14             	add    $0x14,%esp
  101f0d:	5b                   	pop    %ebx
  101f0e:	5d                   	pop    %ebp
    panic("iunlock");

  acquire(&icache.lock);
  ip->flags &= ~I_BUSY;
  wakeup(ip);
  release(&icache.lock);
  101f0f:	e9 dc 27 00 00       	jmp    1046f0 <release>
// Unlock the given inode.
void
iunlock(struct inode *ip)
{
  if(ip == 0 || !(ip->flags & I_BUSY) || ip->ref < 1)
    panic("iunlock");
  101f14:	c7 04 24 13 6a 10 00 	movl   $0x106a13,(%esp)
  101f1b:	e8 40 ea ff ff       	call   100960 <panic>

00101f20 <iunlockput>:
}

// Common idiom: unlock, then put.
void
iunlockput(struct inode *ip)
{
  101f20:	55                   	push   %ebp
  101f21:	89 e5                	mov    %esp,%ebp
  101f23:	53                   	push   %ebx
  101f24:	83 ec 14             	sub    $0x14,%esp
  101f27:	8b 5d 08             	mov    0x8(%ebp),%ebx
  iunlock(ip);
  101f2a:	89 1c 24             	mov    %ebx,(%esp)
  101f2d:	e8 9e ff ff ff       	call   101ed0 <iunlock>
  iput(ip);
  101f32:	89 5d 08             	mov    %ebx,0x8(%ebp)
}
  101f35:	83 c4 14             	add    $0x14,%esp
  101f38:	5b                   	pop    %ebx
  101f39:	5d                   	pop    %ebp
// Common idiom: unlock, then put.
void
iunlockput(struct inode *ip)
{
  iunlock(ip);
  iput(ip);
  101f3a:	e9 b1 fc ff ff       	jmp    101bf0 <iput>
  101f3f:	90                   	nop

00101f40 <ilock>:
}

// Lock the given inode.
void
ilock(struct inode *ip)
{
  101f40:	55                   	push   %ebp
  101f41:	89 e5                	mov    %esp,%ebp
  101f43:	56                   	push   %esi
  101f44:	53                   	push   %ebx
  101f45:	83 ec 10             	sub    $0x10,%esp
  101f48:	8b 5d 08             	mov    0x8(%ebp),%ebx
  struct buf *bp;
  struct dinode *dip;

  if(ip == 0 || ip->ref < 1)
  101f4b:	85 db                	test   %ebx,%ebx
  101f4d:	0f 84 e5 00 00 00    	je     102038 <ilock+0xf8>
  101f53:	8b 53 08             	mov    0x8(%ebx),%edx
  101f56:	85 d2                	test   %edx,%edx
  101f58:	0f 8e da 00 00 00    	jle    102038 <ilock+0xf8>
    panic("ilock");

  acquire(&icache.lock);
  101f5e:	c7 04 24 00 ab 10 00 	movl   $0x10ab00,(%esp)
  101f65:	e8 c6 27 00 00       	call   104730 <acquire>
  while(ip->flags & I_BUSY)
  101f6a:	8b 43 0c             	mov    0xc(%ebx),%eax
  101f6d:	a8 01                	test   $0x1,%al
  101f6f:	74 1e                	je     101f8f <ilock+0x4f>
  101f71:	8d b4 26 00 00 00 00 	lea    0x0(%esi,%eiz,1),%esi
    sleep(ip, &icache.lock);
  101f78:	c7 44 24 04 00 ab 10 	movl   $0x10ab00,0x4(%esp)
  101f7f:	00 
  101f80:	89 1c 24             	mov    %ebx,(%esp)
  101f83:	e8 18 1a 00 00       	call   1039a0 <sleep>

  if(ip == 0 || ip->ref < 1)
    panic("ilock");

  acquire(&icache.lock);
  while(ip->flags & I_BUSY)
  101f88:	8b 43 0c             	mov    0xc(%ebx),%eax
  101f8b:	a8 01                	test   $0x1,%al
  101f8d:	75 e9                	jne    101f78 <ilock+0x38>
    sleep(ip, &icache.lock);
  ip->flags |= I_BUSY;
  101f8f:	83 c8 01             	or     $0x1,%eax
  101f92:	89 43 0c             	mov    %eax,0xc(%ebx)
  release(&icache.lock);
  101f95:	c7 04 24 00 ab 10 00 	movl   $0x10ab00,(%esp)
  101f9c:	e8 4f 27 00 00       	call   1046f0 <release>

  if(!(ip->flags & I_VALID)){
  101fa1:	f6 43 0c 02          	testb  $0x2,0xc(%ebx)
  101fa5:	74 09                	je     101fb0 <ilock+0x70>
    brelse(bp);
    ip->flags |= I_VALID;
    if(ip->type == 0)
      panic("ilock: no type");
  }
}
  101fa7:	83 c4 10             	add    $0x10,%esp
  101faa:	5b                   	pop    %ebx
  101fab:	5e                   	pop    %esi
  101fac:	5d                   	pop    %ebp
  101fad:	c3                   	ret    
  101fae:	66 90                	xchg   %ax,%ax
    sleep(ip, &icache.lock);
  ip->flags |= I_BUSY;
  release(&icache.lock);

  if(!(ip->flags & I_VALID)){
    bp = bread(ip->dev, IBLOCK(ip->inum));
  101fb0:	8b 43 04             	mov    0x4(%ebx),%eax
  101fb3:	c1 e8 03             	shr    $0x3,%eax
  101fb6:	83 c0 02             	add    $0x2,%eax
  101fb9:	89 44 24 04          	mov    %eax,0x4(%esp)
  101fbd:	8b 03                	mov    (%ebx),%eax
  101fbf:	89 04 24             	mov    %eax,(%esp)
  101fc2:	e8 69 e1 ff ff       	call   100130 <bread>
  101fc7:	89 c6                	mov    %eax,%esi
    dip = (struct dinode*)bp->data + ip->inum%IPB;
  101fc9:	8b 43 04             	mov    0x4(%ebx),%eax
  101fcc:	83 e0 07             	and    $0x7,%eax
  101fcf:	c1 e0 06             	shl    $0x6,%eax
  101fd2:	8d 44 06 18          	lea    0x18(%esi,%eax,1),%eax
    ip->type = dip->type;
  101fd6:	0f b7 10             	movzwl (%eax),%edx
  101fd9:	66 89 53 10          	mov    %dx,0x10(%ebx)
    ip->major = dip->major;
  101fdd:	0f b7 50 02          	movzwl 0x2(%eax),%edx
  101fe1:	66 89 53 12          	mov    %dx,0x12(%ebx)
    ip->minor = dip->minor;
  101fe5:	0f b7 50 04          	movzwl 0x4(%eax),%edx
  101fe9:	66 89 53 14          	mov    %dx,0x14(%ebx)
    ip->nlink = dip->nlink;
  101fed:	0f b7 50 06          	movzwl 0x6(%eax),%edx
  101ff1:	66 89 53 16          	mov    %dx,0x16(%ebx)
    ip->size = dip->size;
  101ff5:	8b 50 08             	mov    0x8(%eax),%edx
    memmove(ip->addrs, dip->addrs, sizeof(ip->addrs));
  101ff8:	83 c0 0c             	add    $0xc,%eax
    dip = (struct dinode*)bp->data + ip->inum%IPB;
    ip->type = dip->type;
    ip->major = dip->major;
    ip->minor = dip->minor;
    ip->nlink = dip->nlink;
    ip->size = dip->size;
  101ffb:	89 53 18             	mov    %edx,0x18(%ebx)
    memmove(ip->addrs, dip->addrs, sizeof(ip->addrs));
  101ffe:	89 44 24 04          	mov    %eax,0x4(%esp)
  102002:	8d 43 1c             	lea    0x1c(%ebx),%eax
  102005:	c7 44 24 08 34 00 00 	movl   $0x34,0x8(%esp)
  10200c:	00 
  10200d:	89 04 24             	mov    %eax,(%esp)
  102010:	e8 1b 28 00 00       	call   104830 <memmove>
    brelse(bp);
  102015:	89 34 24             	mov    %esi,(%esp)
  102018:	e8 e3 df ff ff       	call   100000 <brelse>
    ip->flags |= I_VALID;
  10201d:	83 4b 0c 02          	orl    $0x2,0xc(%ebx)
    if(ip->type == 0)
  102021:	66 83 7b 10 00       	cmpw   $0x0,0x10(%ebx)
  102026:	0f 85 7b ff ff ff    	jne    101fa7 <ilock+0x67>
      panic("ilock: no type");
  10202c:	c7 04 24 21 6a 10 00 	movl   $0x106a21,(%esp)
  102033:	e8 28 e9 ff ff       	call   100960 <panic>
{
  struct buf *bp;
  struct dinode *dip;

  if(ip == 0 || ip->ref < 1)
    panic("ilock");
  102038:	c7 04 24 1b 6a 10 00 	movl   $0x106a1b,(%esp)
  10203f:	e8 1c e9 ff ff       	call   100960 <panic>
  102044:	8d b6 00 00 00 00    	lea    0x0(%esi),%esi
  10204a:	8d bf 00 00 00 00    	lea    0x0(%edi),%edi

00102050 <_namei>:
// Look up and return the inode for a path name.
// If parent != 0, return the inode for the parent and copy the final
// path element into name, which must have room for DIRSIZ bytes.
static struct inode*
_namei(char *path, int parent, char *name)
{
  102050:	55                   	push   %ebp
  102051:	89 e5                	mov    %esp,%ebp
  102053:	57                   	push   %edi
  102054:	56                   	push   %esi
  102055:	53                   	push   %ebx
  102056:	89 c3                	mov    %eax,%ebx
  102058:	83 ec 2c             	sub    $0x2c,%esp
  10205b:	89 55 e0             	mov    %edx,-0x20(%ebp)
  10205e:	89 4d e4             	mov    %ecx,-0x1c(%ebp)
  struct inode *ip, *next;

  if(*path == '/')
  102061:	80 38 2f             	cmpb   $0x2f,(%eax)
  102064:	0f 84 3b 01 00 00    	je     1021a5 <_namei+0x155>
    ip = iget(ROOTDEV, 1);
  else
    ip = idup(cp->cwd);
  10206a:	e8 81 16 00 00       	call   1036f0 <curproc>
  10206f:	8b 40 60             	mov    0x60(%eax),%eax
  102072:	89 04 24             	mov    %eax,(%esp)
  102075:	e8 96 f1 ff ff       	call   101210 <idup>
  10207a:	89 c7                	mov    %eax,%edi
  10207c:	eb 05                	jmp    102083 <_namei+0x33>
  10207e:	66 90                	xchg   %ax,%ax
{
  char *s;
  int len;

  while(*path == '/')
    path++;
  102080:	83 c3 01             	add    $0x1,%ebx
skipelem(char *path, char *name)
{
  char *s;
  int len;

  while(*path == '/')
  102083:	0f b6 03             	movzbl (%ebx),%eax
  102086:	3c 2f                	cmp    $0x2f,%al
  102088:	74 f6                	je     102080 <_namei+0x30>
    path++;
  if(*path == 0)
  10208a:	84 c0                	test   %al,%al
  10208c:	75 1a                	jne    1020a8 <_namei+0x58>
      return 0;
    }
    iunlockput(ip);
    ip = next;
  }
  if(parent){
  10208e:	8b 4d e0             	mov    -0x20(%ebp),%ecx
  102091:	85 c9                	test   %ecx,%ecx
  102093:	0f 85 34 01 00 00    	jne    1021cd <_namei+0x17d>
    iput(ip);
    return 0;
  }
  return ip;
}
  102099:	83 c4 2c             	add    $0x2c,%esp
  10209c:	89 f8                	mov    %edi,%eax
  10209e:	5b                   	pop    %ebx
  10209f:	5e                   	pop    %esi
  1020a0:	5f                   	pop    %edi
  1020a1:	5d                   	pop    %ebp
  1020a2:	c3                   	ret    
  1020a3:	90                   	nop
  1020a4:	8d 74 26 00          	lea    0x0(%esi,%eiz,1),%esi
  while(*path == '/')
    path++;
  if(*path == 0)
    return 0;
  s = path;
  while(*path != '/' && *path != 0)
  1020a8:	3c 2f                	cmp    $0x2f,%al
  1020aa:	0f 84 db 00 00 00    	je     10218b <_namei+0x13b>
  1020b0:	89 de                	mov    %ebx,%esi
    path++;
  1020b2:	83 c6 01             	add    $0x1,%esi
  while(*path == '/')
    path++;
  if(*path == 0)
    return 0;
  s = path;
  while(*path != '/' && *path != 0)
  1020b5:	0f b6 06             	movzbl (%esi),%eax
  1020b8:	84 c0                	test   %al,%al
  1020ba:	0f 85 90 00 00 00    	jne    102150 <_namei+0x100>
  1020c0:	89 f2                	mov    %esi,%edx
  1020c2:	29 da                	sub    %ebx,%edx
    path++;
  len = path - s;
  if(len >= DIRSIZ)
  1020c4:	83 fa 0d             	cmp    $0xd,%edx
  1020c7:	0f 8e 99 00 00 00    	jle    102166 <_namei+0x116>
  1020cd:	8d 76 00             	lea    0x0(%esi),%esi
    memmove(name, s, DIRSIZ);
  1020d0:	c7 44 24 08 0e 00 00 	movl   $0xe,0x8(%esp)
  1020d7:	00 
  1020d8:	89 5c 24 04          	mov    %ebx,0x4(%esp)
  1020dc:	8b 45 e4             	mov    -0x1c(%ebp),%eax
  1020df:	89 04 24             	mov    %eax,(%esp)
  1020e2:	e8 49 27 00 00       	call   104830 <memmove>
  1020e7:	eb 0a                	jmp    1020f3 <_namei+0xa3>
  1020e9:	8d b4 26 00 00 00 00 	lea    0x0(%esi,%eiz,1),%esi
  else {
    memmove(name, s, len);
    name[len] = 0;
  }
  while(*path == '/')
    path++;
  1020f0:	83 c6 01             	add    $0x1,%esi
    memmove(name, s, DIRSIZ);
  else {
    memmove(name, s, len);
    name[len] = 0;
  }
  while(*path == '/')
  1020f3:	80 3e 2f             	cmpb   $0x2f,(%esi)
  1020f6:	74 f8                	je     1020f0 <_namei+0xa0>
  if(*path == '/')
    ip = iget(ROOTDEV, 1);
  else
    ip = idup(cp->cwd);

  while((path = skipelem(path, name)) != 0){
  1020f8:	85 f6                	test   %esi,%esi
  1020fa:	74 92                	je     10208e <_namei+0x3e>
    ilock(ip);
  1020fc:	89 3c 24             	mov    %edi,(%esp)
  1020ff:	e8 3c fe ff ff       	call   101f40 <ilock>
    if(ip->type != T_DIR){
  102104:	66 83 7f 10 01       	cmpw   $0x1,0x10(%edi)
  102109:	0f 85 82 00 00 00    	jne    102191 <_namei+0x141>
      iunlockput(ip);
      return 0;
    }
    if(parent && *path == '\0'){
  10210f:	8b 5d e0             	mov    -0x20(%ebp),%ebx
  102112:	85 db                	test   %ebx,%ebx
  102114:	74 09                	je     10211f <_namei+0xcf>
  102116:	80 3e 00             	cmpb   $0x0,(%esi)
  102119:	0f 84 9c 00 00 00    	je     1021bb <_namei+0x16b>
      // Stop one level early.
      iunlock(ip);
      return ip;
    }
    if((next = dirlookup(ip, name, 0)) == 0){
  10211f:	c7 44 24 08 00 00 00 	movl   $0x0,0x8(%esp)
  102126:	00 
  102127:	8b 45 e4             	mov    -0x1c(%ebp),%eax
  10212a:	89 3c 24             	mov    %edi,(%esp)
  10212d:	89 44 24 04          	mov    %eax,0x4(%esp)
  102131:	e8 da f7 ff ff       	call   101910 <dirlookup>
  102136:	85 c0                	test   %eax,%eax
  102138:	89 c3                	mov    %eax,%ebx
  10213a:	74 55                	je     102191 <_namei+0x141>
      iunlockput(ip);
      return 0;
    }
    iunlockput(ip);
  10213c:	89 3c 24             	mov    %edi,(%esp)
  10213f:	89 df                	mov    %ebx,%edi
  102141:	89 f3                	mov    %esi,%ebx
  102143:	e8 d8 fd ff ff       	call   101f20 <iunlockput>
  102148:	e9 36 ff ff ff       	jmp    102083 <_namei+0x33>
  10214d:	8d 76 00             	lea    0x0(%esi),%esi
  while(*path == '/')
    path++;
  if(*path == 0)
    return 0;
  s = path;
  while(*path != '/' && *path != 0)
  102150:	3c 2f                	cmp    $0x2f,%al
  102152:	0f 85 5a ff ff ff    	jne    1020b2 <_namei+0x62>
  102158:	89 f2                	mov    %esi,%edx
  10215a:	29 da                	sub    %ebx,%edx
    path++;
  len = path - s;
  if(len >= DIRSIZ)
  10215c:	83 fa 0d             	cmp    $0xd,%edx
  10215f:	90                   	nop
  102160:	0f 8f 6a ff ff ff    	jg     1020d0 <_namei+0x80>
    memmove(name, s, DIRSIZ);
  else {
    memmove(name, s, len);
  102166:	89 54 24 08          	mov    %edx,0x8(%esp)
  10216a:	89 5c 24 04          	mov    %ebx,0x4(%esp)
  10216e:	8b 45 e4             	mov    -0x1c(%ebp),%eax
  102171:	89 04 24             	mov    %eax,(%esp)
  102174:	89 55 dc             	mov    %edx,-0x24(%ebp)
  102177:	e8 b4 26 00 00       	call   104830 <memmove>
    name[len] = 0;
  10217c:	8b 55 dc             	mov    -0x24(%ebp),%edx
  10217f:	8b 45 e4             	mov    -0x1c(%ebp),%eax
  102182:	c6 04 10 00          	movb   $0x0,(%eax,%edx,1)
  102186:	e9 68 ff ff ff       	jmp    1020f3 <_namei+0xa3>
  }
  while(*path == '/')
  10218b:	89 de                	mov    %ebx,%esi
  10218d:	31 d2                	xor    %edx,%edx
  10218f:	eb d5                	jmp    102166 <_namei+0x116>
      // Stop one level early.
      iunlock(ip);
      return ip;
    }
    if((next = dirlookup(ip, name, 0)) == 0){
      iunlockput(ip);
  102191:	89 3c 24             	mov    %edi,(%esp)
  102194:	31 ff                	xor    %edi,%edi
  102196:	e8 85 fd ff ff       	call   101f20 <iunlockput>
  if(parent){
    iput(ip);
    return 0;
  }
  return ip;
}
  10219b:	83 c4 2c             	add    $0x2c,%esp
  10219e:	89 f8                	mov    %edi,%eax
  1021a0:	5b                   	pop    %ebx
  1021a1:	5e                   	pop    %esi
  1021a2:	5f                   	pop    %edi
  1021a3:	5d                   	pop    %ebp
  1021a4:	c3                   	ret    
_namei(char *path, int parent, char *name)
{
  struct inode *ip, *next;

  if(*path == '/')
    ip = iget(ROOTDEV, 1);
  1021a5:	ba 01 00 00 00       	mov    $0x1,%edx
  1021aa:	b8 01 00 00 00       	mov    $0x1,%eax
  1021af:	e8 8c f0 ff ff       	call   101240 <iget>
  1021b4:	89 c7                	mov    %eax,%edi
  1021b6:	e9 c8 fe ff ff       	jmp    102083 <_namei+0x33>
      iunlockput(ip);
      return 0;
    }
    if(parent && *path == '\0'){
      // Stop one level early.
      iunlock(ip);
  1021bb:	89 3c 24             	mov    %edi,(%esp)
  1021be:	e8 0d fd ff ff       	call   101ed0 <iunlock>
  if(parent){
    iput(ip);
    return 0;
  }
  return ip;
}
  1021c3:	83 c4 2c             	add    $0x2c,%esp
  1021c6:	89 f8                	mov    %edi,%eax
  1021c8:	5b                   	pop    %ebx
  1021c9:	5e                   	pop    %esi
  1021ca:	5f                   	pop    %edi
  1021cb:	5d                   	pop    %ebp
  1021cc:	c3                   	ret    
    }
    iunlockput(ip);
    ip = next;
  }
  if(parent){
    iput(ip);
  1021cd:	89 3c 24             	mov    %edi,(%esp)
  1021d0:	31 ff                	xor    %edi,%edi
  1021d2:	e8 19 fa ff ff       	call   101bf0 <iput>
    return 0;
  1021d7:	e9 bd fe ff ff       	jmp    102099 <_namei+0x49>
  1021dc:	8d 74 26 00          	lea    0x0(%esi,%eiz,1),%esi

001021e0 <nameiparent>:
  return _namei(path, 0, name);
}

struct inode*
nameiparent(char *path, char *name)
{
  1021e0:	55                   	push   %ebp
  return _namei(path, 1, name);
  1021e1:	ba 01 00 00 00       	mov    $0x1,%edx
  return _namei(path, 0, name);
}

struct inode*
nameiparent(char *path, char *name)
{
  1021e6:	89 e5                	mov    %esp,%ebp
  1021e8:	83 ec 08             	sub    $0x8,%esp
  return _namei(path, 1, name);
  1021eb:	8b 4d 0c             	mov    0xc(%ebp),%ecx
  1021ee:	8b 45 08             	mov    0x8(%ebp),%eax
}
  1021f1:	c9                   	leave  
}

struct inode*
nameiparent(char *path, char *name)
{
  return _namei(path, 1, name);
  1021f2:	e9 59 fe ff ff       	jmp    102050 <_namei>
  1021f7:	89 f6                	mov    %esi,%esi
  1021f9:	8d bc 27 00 00 00 00 	lea    0x0(%edi,%eiz,1),%edi

00102200 <namei>:
  return ip;
}

struct inode*
namei(char *path)
{
  102200:	55                   	push   %ebp
  char name[DIRSIZ];
  return _namei(path, 0, name);
  102201:	31 d2                	xor    %edx,%edx
  return ip;
}

struct inode*
namei(char *path)
{
  102203:	89 e5                	mov    %esp,%ebp
  102205:	83 ec 18             	sub    $0x18,%esp
  char name[DIRSIZ];
  return _namei(path, 0, name);
  102208:	8b 45 08             	mov    0x8(%ebp),%eax
  10220b:	8d 4d ea             	lea    -0x16(%ebp),%ecx
  10220e:	e8 3d fe ff ff       	call   102050 <_namei>
}
  102213:	c9                   	leave  
  102214:	c3                   	ret    
  102215:	8d 74 26 00          	lea    0x0(%esi,%eiz,1),%esi
  102219:	8d bc 27 00 00 00 00 	lea    0x0(%edi,%eiz,1),%edi

00102220 <iinit>:
  struct inode inode[NINODE];
} icache;

void
iinit(void)
{
  102220:	55                   	push   %ebp
  102221:	89 e5                	mov    %esp,%ebp
  102223:	83 ec 18             	sub    $0x18,%esp
  initlock(&icache.lock, "icache.lock");
  102226:	c7 44 24 04 30 6a 10 	movl   $0x106a30,0x4(%esp)
  10222d:	00 
  10222e:	c7 04 24 00 ab 10 00 	movl   $0x10ab00,(%esp)
  102235:	e8 36 23 00 00       	call   104570 <initlock>
}
  10223a:	c9                   	leave  
  10223b:	c3                   	ret    
  10223c:	90                   	nop
  10223d:	90                   	nop
  10223e:	90                   	nop
  10223f:	90                   	nop

00102240 <ide_start_request>:
}

// Start the request for b.  Caller must hold ide_lock.
static void
ide_start_request(struct buf *b)
{
  102240:	55                   	push   %ebp
  102241:	89 c1                	mov    %eax,%ecx
  102243:	89 e5                	mov    %esp,%ebp
  102245:	56                   	push   %esi
  102246:	83 ec 14             	sub    $0x14,%esp
  if(b == 0)
  102249:	85 c0                	test   %eax,%eax
  10224b:	0f 84 89 00 00 00    	je     1022da <ide_start_request+0x9a>
static inline uchar
inb(ushort port)
{
  uchar data;

  asm volatile("in %1,%0" : "=a" (data) : "d" (port));
  102251:	ba f7 01 00 00       	mov    $0x1f7,%edx
  102256:	66 90                	xchg   %ax,%ax
  102258:	ec                   	in     (%dx),%al
static int
ide_wait_ready(int check_error)
{
  int r;

  while(((r = inb(0x1f7)) & IDE_BSY) || !(r & IDE_DRDY))
  102259:	0f b6 c0             	movzbl %al,%eax
  10225c:	84 c0                	test   %al,%al
  10225e:	78 f8                	js     102258 <ide_start_request+0x18>
  102260:	a8 40                	test   $0x40,%al
  102262:	74 f4                	je     102258 <ide_start_request+0x18>
}

static inline void
outb(ushort port, uchar data)
{
  asm volatile("out %0,%1" : : "a" (data), "d" (port));
  102264:	ba f6 03 00 00       	mov    $0x3f6,%edx
  102269:	31 c0                	xor    %eax,%eax
  10226b:	ee                   	out    %al,(%dx)
  10226c:	ba f2 01 00 00       	mov    $0x1f2,%edx
  102271:	b8 01 00 00 00       	mov    $0x1,%eax
  102276:	ee                   	out    %al,(%dx)
    panic("ide_start_request");

  ide_wait_ready(0);
  outb(0x3f6, 0);  // generate interrupt
  outb(0x1f2, 1);  // number of sectors
  outb(0x1f3, b->sector & 0xff);
  102277:	8b 71 08             	mov    0x8(%ecx),%esi
  10227a:	b2 f3                	mov    $0xf3,%dl
  10227c:	89 f0                	mov    %esi,%eax
  10227e:	ee                   	out    %al,(%dx)
  10227f:	89 f0                	mov    %esi,%eax
  102281:	b2 f4                	mov    $0xf4,%dl
  102283:	c1 e8 08             	shr    $0x8,%eax
  102286:	ee                   	out    %al,(%dx)
  102287:	89 f0                	mov    %esi,%eax
  102289:	b2 f5                	mov    $0xf5,%dl
  10228b:	c1 e8 10             	shr    $0x10,%eax
  10228e:	ee                   	out    %al,(%dx)
  10228f:	8b 41 04             	mov    0x4(%ecx),%eax
  102292:	c1 ee 18             	shr    $0x18,%esi
  102295:	b2 f6                	mov    $0xf6,%dl
  102297:	83 e6 0f             	and    $0xf,%esi
  10229a:	83 e0 01             	and    $0x1,%eax
  10229d:	c1 e0 04             	shl    $0x4,%eax
  1022a0:	09 f0                	or     %esi,%eax
  1022a2:	83 c8 e0             	or     $0xffffffe0,%eax
  1022a5:	ee                   	out    %al,(%dx)
  outb(0x1f4, (b->sector >> 8) & 0xff);
  outb(0x1f5, (b->sector >> 16) & 0xff);
  outb(0x1f6, 0xe0 | ((b->dev&1)<<4) | ((b->sector>>24)&0x0f));
  if(b->flags & B_DIRTY){
  1022a6:	f6 01 04             	testb  $0x4,(%ecx)
  1022a9:	75 11                	jne    1022bc <ide_start_request+0x7c>
  1022ab:	ba f7 01 00 00       	mov    $0x1f7,%edx
  1022b0:	b8 20 00 00 00       	mov    $0x20,%eax
  1022b5:	ee                   	out    %al,(%dx)
    outb(0x1f7, IDE_CMD_WRITE);
    outsl(0x1f0, b->data, 512/4);
  } else {
    outb(0x1f7, IDE_CMD_READ);
  }
}
  1022b6:	83 c4 14             	add    $0x14,%esp
  1022b9:	5e                   	pop    %esi
  1022ba:	5d                   	pop    %ebp
  1022bb:	c3                   	ret    
  1022bc:	b2 f7                	mov    $0xf7,%dl
  1022be:	b8 30 00 00 00       	mov    $0x30,%eax
  1022c3:	ee                   	out    %al,(%dx)
}

static inline void
outsl(int port, const void *addr, int cnt)
{
  asm volatile("cld\n\trepne\n\toutsl"    :
  1022c4:	ba f0 01 00 00       	mov    $0x1f0,%edx
  1022c9:	8d 71 18             	lea    0x18(%ecx),%esi
  1022cc:	b9 80 00 00 00       	mov    $0x80,%ecx
  1022d1:	fc                   	cld    
  1022d2:	f2 6f                	repnz outsl %ds:(%esi),(%dx)
  1022d4:	83 c4 14             	add    $0x14,%esp
  1022d7:	5e                   	pop    %esi
  1022d8:	5d                   	pop    %ebp
  1022d9:	c3                   	ret    
// Start the request for b.  Caller must hold ide_lock.
static void
ide_start_request(struct buf *b)
{
  if(b == 0)
    panic("ide_start_request");
  1022da:	c7 04 24 3c 6a 10 00 	movl   $0x106a3c,(%esp)
  1022e1:	e8 7a e6 ff ff       	call   100960 <panic>
  1022e6:	8d 76 00             	lea    0x0(%esi),%esi
  1022e9:	8d bc 27 00 00 00 00 	lea    0x0(%edi,%eiz,1),%edi

001022f0 <ide_rw>:
// Sync buf with disk. 
// If B_DIRTY is set, write buf to disk, clear B_DIRTY, set B_VALID.
// Else if B_VALID is not set, read buf from disk, set B_VALID.
void
ide_rw(struct buf *b)
{
  1022f0:	55                   	push   %ebp
  1022f1:	89 e5                	mov    %esp,%ebp
  1022f3:	53                   	push   %ebx
  1022f4:	83 ec 14             	sub    $0x14,%esp
  1022f7:	8b 5d 08             	mov    0x8(%ebp),%ebx
  struct buf **pp;

  if(!(b->flags & B_BUSY))
  1022fa:	8b 03                	mov    (%ebx),%eax
  1022fc:	a8 01                	test   $0x1,%al
  1022fe:	0f 84 90 00 00 00    	je     102394 <ide_rw+0xa4>
    panic("ide_rw: buf not busy");
  if((b->flags & (B_VALID|B_DIRTY)) == B_VALID)
  102304:	83 e0 06             	and    $0x6,%eax
  102307:	83 f8 02             	cmp    $0x2,%eax
  10230a:	0f 84 9c 00 00 00    	je     1023ac <ide_rw+0xbc>
    panic("ide_rw: nothing to do");
  if(b->dev != 0 && !disk_1_present)
  102310:	8b 53 04             	mov    0x4(%ebx),%edx
  102313:	85 d2                	test   %edx,%edx
  102315:	74 0d                	je     102324 <ide_rw+0x34>
  102317:	a1 b8 88 10 00       	mov    0x1088b8,%eax
  10231c:	85 c0                	test   %eax,%eax
  10231e:	0f 84 7c 00 00 00    	je     1023a0 <ide_rw+0xb0>
    panic("ide disk 1 not present");

  acquire(&ide_lock);
  102324:	c7 04 24 80 88 10 00 	movl   $0x108880,(%esp)
  10232b:	e8 00 24 00 00       	call   104730 <acquire>

  // Append b to ide_queue.
  b->qnext = 0;
  102330:	a1 b4 88 10 00       	mov    0x1088b4,%eax
  for(pp=&ide_queue; *pp; pp=&(*pp)->qnext)
  102335:	ba b4 88 10 00       	mov    $0x1088b4,%edx
    panic("ide disk 1 not present");

  acquire(&ide_lock);

  // Append b to ide_queue.
  b->qnext = 0;
  10233a:	c7 43 14 00 00 00 00 	movl   $0x0,0x14(%ebx)
  for(pp=&ide_queue; *pp; pp=&(*pp)->qnext)
  102341:	85 c0                	test   %eax,%eax
  102343:	74 0d                	je     102352 <ide_rw+0x62>
  102345:	8d 76 00             	lea    0x0(%esi),%esi
  102348:	8d 50 14             	lea    0x14(%eax),%edx
  10234b:	8b 40 14             	mov    0x14(%eax),%eax
  10234e:	85 c0                	test   %eax,%eax
  102350:	75 f6                	jne    102348 <ide_rw+0x58>
    ;
  *pp = b;
  102352:	89 1a                	mov    %ebx,(%edx)
  
  // Start disk if necessary.
  if(ide_queue == b)
  102354:	39 1d b4 88 10 00    	cmp    %ebx,0x1088b4
  10235a:	75 14                	jne    102370 <ide_rw+0x80>
  10235c:	eb 2d                	jmp    10238b <ide_rw+0x9b>
  10235e:	66 90                	xchg   %ax,%ax
    ide_start_request(b);
  
  // Wait for request to finish.
  // Assuming will not sleep too long: ignore cp->killed.
  while((b->flags & (B_VALID|B_DIRTY)) != B_VALID)
    sleep(b, &ide_lock);
  102360:	c7 44 24 04 80 88 10 	movl   $0x108880,0x4(%esp)
  102367:	00 
  102368:	89 1c 24             	mov    %ebx,(%esp)
  10236b:	e8 30 16 00 00       	call   1039a0 <sleep>
  if(ide_queue == b)
    ide_start_request(b);
  
  // Wait for request to finish.
  // Assuming will not sleep too long: ignore cp->killed.
  while((b->flags & (B_VALID|B_DIRTY)) != B_VALID)
  102370:	8b 03                	mov    (%ebx),%eax
  102372:	83 e0 06             	and    $0x6,%eax
  102375:	83 f8 02             	cmp    $0x2,%eax
  102378:	75 e6                	jne    102360 <ide_rw+0x70>
    sleep(b, &ide_lock);

  release(&ide_lock);
  10237a:	c7 45 08 80 88 10 00 	movl   $0x108880,0x8(%ebp)
}
  102381:	83 c4 14             	add    $0x14,%esp
  102384:	5b                   	pop    %ebx
  102385:	5d                   	pop    %ebp
  // Wait for request to finish.
  // Assuming will not sleep too long: ignore cp->killed.
  while((b->flags & (B_VALID|B_DIRTY)) != B_VALID)
    sleep(b, &ide_lock);

  release(&ide_lock);
  102386:	e9 65 23 00 00       	jmp    1046f0 <release>
    ;
  *pp = b;
  
  // Start disk if necessary.
  if(ide_queue == b)
    ide_start_request(b);
  10238b:	89 d8                	mov    %ebx,%eax
  10238d:	e8 ae fe ff ff       	call   102240 <ide_start_request>
  102392:	eb dc                	jmp    102370 <ide_rw+0x80>
ide_rw(struct buf *b)
{
  struct buf **pp;

  if(!(b->flags & B_BUSY))
    panic("ide_rw: buf not busy");
  102394:	c7 04 24 4e 6a 10 00 	movl   $0x106a4e,(%esp)
  10239b:	e8 c0 e5 ff ff       	call   100960 <panic>
  if((b->flags & (B_VALID|B_DIRTY)) == B_VALID)
    panic("ide_rw: nothing to do");
  if(b->dev != 0 && !disk_1_present)
    panic("ide disk 1 not present");
  1023a0:	c7 04 24 79 6a 10 00 	movl   $0x106a79,(%esp)
  1023a7:	e8 b4 e5 ff ff       	call   100960 <panic>
  struct buf **pp;

  if(!(b->flags & B_BUSY))
    panic("ide_rw: buf not busy");
  if((b->flags & (B_VALID|B_DIRTY)) == B_VALID)
    panic("ide_rw: nothing to do");
  1023ac:	c7 04 24 63 6a 10 00 	movl   $0x106a63,(%esp)
  1023b3:	e8 a8 e5 ff ff       	call   100960 <panic>
  1023b8:	90                   	nop
  1023b9:	8d b4 26 00 00 00 00 	lea    0x0(%esi,%eiz,1),%esi

001023c0 <ide_intr>:
}

// Interrupt handler.
void
ide_intr(void)
{
  1023c0:	55                   	push   %ebp
  1023c1:	89 e5                	mov    %esp,%ebp
  1023c3:	57                   	push   %edi
  1023c4:	53                   	push   %ebx
  1023c5:	83 ec 10             	sub    $0x10,%esp
  struct buf *b;

  acquire(&ide_lock);
  1023c8:	c7 04 24 80 88 10 00 	movl   $0x108880,(%esp)
  1023cf:	e8 5c 23 00 00       	call   104730 <acquire>
  if((b = ide_queue) == 0){
  1023d4:	8b 1d b4 88 10 00    	mov    0x1088b4,%ebx
  1023da:	85 db                	test   %ebx,%ebx
  1023dc:	74 28                	je     102406 <ide_intr+0x46>
    release(&ide_lock);
    return;
  }

  // Read data if needed.
  if(!(b->flags & B_DIRTY) && ide_wait_ready(1) >= 0)
  1023de:	8b 0b                	mov    (%ebx),%ecx
  1023e0:	f6 c1 04             	test   $0x4,%cl
  1023e3:	74 3b                	je     102420 <ide_intr+0x60>
    insl(0x1f0, b->data, 512/4);
  
  // Wake process waiting for this buf.
  b->flags |= B_VALID;
  b->flags &= ~B_DIRTY;
  1023e5:	83 c9 02             	or     $0x2,%ecx
  1023e8:	83 e1 fb             	and    $0xfffffffb,%ecx
  1023eb:	89 0b                	mov    %ecx,(%ebx)
  wakeup(b);
  1023ed:	89 1c 24             	mov    %ebx,(%esp)
  1023f0:	e8 fb 11 00 00       	call   1035f0 <wakeup>
  
  // Start disk on next buf in queue.
  if((ide_queue = b->qnext) != 0)
  1023f5:	8b 43 14             	mov    0x14(%ebx),%eax
  1023f8:	85 c0                	test   %eax,%eax
  1023fa:	a3 b4 88 10 00       	mov    %eax,0x1088b4
  1023ff:	74 05                	je     102406 <ide_intr+0x46>
    ide_start_request(ide_queue);
  102401:	e8 3a fe ff ff       	call   102240 <ide_start_request>

  release(&ide_lock);
  102406:	c7 04 24 80 88 10 00 	movl   $0x108880,(%esp)
  10240d:	e8 de 22 00 00       	call   1046f0 <release>
}
  102412:	83 c4 10             	add    $0x10,%esp
  102415:	5b                   	pop    %ebx
  102416:	5f                   	pop    %edi
  102417:	5d                   	pop    %ebp
  102418:	c3                   	ret    
  102419:	8d b4 26 00 00 00 00 	lea    0x0(%esi,%eiz,1),%esi
static inline uchar
inb(ushort port)
{
  uchar data;

  asm volatile("in %1,%0" : "=a" (data) : "d" (port));
  102420:	ba f7 01 00 00       	mov    $0x1f7,%edx
  102425:	8d 76 00             	lea    0x0(%esi),%esi
  102428:	ec                   	in     (%dx),%al
static int
ide_wait_ready(int check_error)
{
  int r;

  while(((r = inb(0x1f7)) & IDE_BSY) || !(r & IDE_DRDY))
  102429:	0f b6 c0             	movzbl %al,%eax
  10242c:	84 c0                	test   %al,%al
  10242e:	78 f8                	js     102428 <ide_intr+0x68>
  102430:	a8 40                	test   $0x40,%al
  102432:	74 f4                	je     102428 <ide_intr+0x68>
    ;
  if(check_error && (r & (IDE_DF|IDE_ERR)) != 0)
  102434:	a8 21                	test   $0x21,%al
  102436:	75 ad                	jne    1023e5 <ide_intr+0x25>
}

static inline void
insl(int port, void *addr, int cnt)
{
  asm volatile("cld\n\trepne\n\tinsl"     :
  102438:	8d 7b 18             	lea    0x18(%ebx),%edi
  10243b:	b9 80 00 00 00       	mov    $0x80,%ecx
  102440:	ba f0 01 00 00       	mov    $0x1f0,%edx
  102445:	fc                   	cld    
  102446:	f2 6d                	repnz insl (%dx),%es:(%edi)
  102448:	8b 0b                	mov    (%ebx),%ecx
  10244a:	eb 99                	jmp    1023e5 <ide_intr+0x25>
  10244c:	8d 74 26 00          	lea    0x0(%esi,%eiz,1),%esi

00102450 <ide_init>:
  return 0;
}

void
ide_init(void)
{
  102450:	55                   	push   %ebp
  102451:	89 e5                	mov    %esp,%ebp
  102453:	83 ec 18             	sub    $0x18,%esp
  int i;

  initlock(&ide_lock, "ide");
  102456:	c7 44 24 04 90 6a 10 	movl   $0x106a90,0x4(%esp)
  10245d:	00 
  10245e:	c7 04 24 80 88 10 00 	movl   $0x108880,(%esp)
  102465:	e8 06 21 00 00       	call   104570 <initlock>
  pic_enable(IRQ_IDE);
  10246a:	c7 04 24 0e 00 00 00 	movl   $0xe,(%esp)
  102471:	e8 8a 0b 00 00       	call   103000 <pic_enable>
  ioapic_enable(IRQ_IDE, ncpu - 1);
  102476:	a1 a0 c1 10 00       	mov    0x10c1a0,%eax
  10247b:	c7 04 24 0e 00 00 00 	movl   $0xe,(%esp)
  102482:	83 e8 01             	sub    $0x1,%eax
  102485:	89 44 24 04          	mov    %eax,0x4(%esp)
  102489:	e8 52 00 00 00       	call   1024e0 <ioapic_enable>
static inline uchar
inb(ushort port)
{
  uchar data;

  asm volatile("in %1,%0" : "=a" (data) : "d" (port));
  10248e:	ba f7 01 00 00       	mov    $0x1f7,%edx
  102493:	90                   	nop
  102494:	8d 74 26 00          	lea    0x0(%esi,%eiz,1),%esi
  102498:	ec                   	in     (%dx),%al
static int
ide_wait_ready(int check_error)
{
  int r;

  while(((r = inb(0x1f7)) & IDE_BSY) || !(r & IDE_DRDY))
  102499:	0f b6 c0             	movzbl %al,%eax
  10249c:	84 c0                	test   %al,%al
  10249e:	78 f8                	js     102498 <ide_init+0x48>
  1024a0:	a8 40                	test   $0x40,%al
  1024a2:	74 f4                	je     102498 <ide_init+0x48>
}

static inline void
outb(ushort port, uchar data)
{
  asm volatile("out %0,%1" : : "a" (data), "d" (port));
  1024a4:	ba f6 01 00 00       	mov    $0x1f6,%edx
  1024a9:	b8 f0 ff ff ff       	mov    $0xfffffff0,%eax
  1024ae:	ee                   	out    %al,(%dx)
  1024af:	31 c9                	xor    %ecx,%ecx
static inline uchar
inb(ushort port)
{
  uchar data;

  asm volatile("in %1,%0" : "=a" (data) : "d" (port));
  1024b1:	b2 f7                	mov    $0xf7,%dl
  1024b3:	eb 0e                	jmp    1024c3 <ide_init+0x73>
  1024b5:	8d 76 00             	lea    0x0(%esi),%esi
  ioapic_enable(IRQ_IDE, ncpu - 1);
  ide_wait_ready(0);
  
  // Check if disk 1 is present
  outb(0x1f6, 0xe0 | (1<<4));
  for(i=0; i<1000; i++){
  1024b8:	83 c1 01             	add    $0x1,%ecx
  1024bb:	81 f9 e8 03 00 00    	cmp    $0x3e8,%ecx
  1024c1:	74 0f                	je     1024d2 <ide_init+0x82>
  1024c3:	ec                   	in     (%dx),%al
    if(inb(0x1f7) != 0){
  1024c4:	84 c0                	test   %al,%al
  1024c6:	74 f0                	je     1024b8 <ide_init+0x68>
      disk_1_present = 1;
  1024c8:	c7 05 b8 88 10 00 01 	movl   $0x1,0x1088b8
  1024cf:	00 00 00 
}

static inline void
outb(ushort port, uchar data)
{
  asm volatile("out %0,%1" : : "a" (data), "d" (port));
  1024d2:	ba f6 01 00 00       	mov    $0x1f6,%edx
  1024d7:	b8 e0 ff ff ff       	mov    $0xffffffe0,%eax
  1024dc:	ee                   	out    %al,(%dx)
    }
  }
  
  // Switch back to disk 0.
  outb(0x1f6, 0xe0 | (0<<4));
}
  1024dd:	c9                   	leave  
  1024de:	c3                   	ret    
  1024df:	90                   	nop

001024e0 <ioapic_enable>:
}

void
ioapic_enable(int irq, int cpunum)
{
  if(!ismp)
  1024e0:	8b 15 20 bb 10 00    	mov    0x10bb20,%edx
  }
}

void
ioapic_enable(int irq, int cpunum)
{
  1024e6:	55                   	push   %ebp
  1024e7:	89 e5                	mov    %esp,%ebp
  1024e9:	8b 45 08             	mov    0x8(%ebp),%eax
  if(!ismp)
  1024ec:	85 d2                	test   %edx,%edx
  1024ee:	74 1f                	je     10250f <ioapic_enable+0x2f>
    return;

  // Mark interrupt edge-triggered, active high,
  // enabled, and routed to the given cpunum,
  // which happens to be that cpu's APIC ID.
  ioapic_write(REG_TABLE+2*irq, IRQ_OFFSET + irq);
  1024f0:	8d 48 20             	lea    0x20(%eax),%ecx
  1024f3:	8d 54 00 10          	lea    0x10(%eax,%eax,1),%edx
}

static void
ioapic_write(int reg, uint data)
{
  ioapic->reg = reg;
  1024f7:	a1 d4 ba 10 00       	mov    0x10bad4,%eax
  1024fc:	89 10                	mov    %edx,(%eax)
  1024fe:	83 c2 01             	add    $0x1,%edx
  ioapic->data = data;
  102501:	89 48 10             	mov    %ecx,0x10(%eax)

  // Mark interrupt edge-triggered, active high,
  // enabled, and routed to the given cpunum,
  // which happens to be that cpu's APIC ID.
  ioapic_write(REG_TABLE+2*irq, IRQ_OFFSET + irq);
  ioapic_write(REG_TABLE+2*irq+1, cpunum << 24);
  102504:	8b 4d 0c             	mov    0xc(%ebp),%ecx
}

static void
ioapic_write(int reg, uint data)
{
  ioapic->reg = reg;
  102507:	89 10                	mov    %edx,(%eax)

  // Mark interrupt edge-triggered, active high,
  // enabled, and routed to the given cpunum,
  // which happens to be that cpu's APIC ID.
  ioapic_write(REG_TABLE+2*irq, IRQ_OFFSET + irq);
  ioapic_write(REG_TABLE+2*irq+1, cpunum << 24);
  102509:	c1 e1 18             	shl    $0x18,%ecx

static void
ioapic_write(int reg, uint data)
{
  ioapic->reg = reg;
  ioapic->data = data;
  10250c:	89 48 10             	mov    %ecx,0x10(%eax)
  // Mark interrupt edge-triggered, active high,
  // enabled, and routed to the given cpunum,
  // which happens to be that cpu's APIC ID.
  ioapic_write(REG_TABLE+2*irq, IRQ_OFFSET + irq);
  ioapic_write(REG_TABLE+2*irq+1, cpunum << 24);
}
  10250f:	5d                   	pop    %ebp
  102510:	c3                   	ret    
  102511:	eb 0d                	jmp    102520 <ioapic_init>
  102513:	90                   	nop
  102514:	90                   	nop
  102515:	90                   	nop
  102516:	90                   	nop
  102517:	90                   	nop
  102518:	90                   	nop
  102519:	90                   	nop
  10251a:	90                   	nop
  10251b:	90                   	nop
  10251c:	90                   	nop
  10251d:	90                   	nop
  10251e:	90                   	nop
  10251f:	90                   	nop

00102520 <ioapic_init>:
  ioapic->data = data;
}

void
ioapic_init(void)
{
  102520:	55                   	push   %ebp
  102521:	89 e5                	mov    %esp,%ebp
  102523:	56                   	push   %esi
  102524:	53                   	push   %ebx
  102525:	83 ec 10             	sub    $0x10,%esp
  int i, id, maxintr;

  if(!ismp)
  102528:	8b 0d 20 bb 10 00    	mov    0x10bb20,%ecx
  10252e:	85 c9                	test   %ecx,%ecx
  102530:	0f 84 86 00 00 00    	je     1025bc <ioapic_init+0x9c>
};

static uint
ioapic_read(int reg)
{
  ioapic->reg = reg;
  102536:	c7 05 00 00 c0 fe 01 	movl   $0x1,0xfec00000
  10253d:	00 00 00 
  return ioapic->data;
  102540:	8b 35 10 00 c0 fe    	mov    0xfec00010,%esi
    return;

  ioapic = (volatile struct ioapic*)IOAPIC;
  maxintr = (ioapic_read(REG_VER) >> 16) & 0xFF;
  id = ioapic_read(REG_ID) >> 24;
  if(id != ioapic_id)
  102546:	b8 00 00 c0 fe       	mov    $0xfec00000,%eax
};

static uint
ioapic_read(int reg)
{
  ioapic->reg = reg;
  10254b:	c7 05 00 00 c0 fe 00 	movl   $0x0,0xfec00000
  102552:	00 00 00 
  return ioapic->data;
  102555:	8b 15 10 00 c0 fe    	mov    0xfec00010,%edx
    return;

  ioapic = (volatile struct ioapic*)IOAPIC;
  maxintr = (ioapic_read(REG_VER) >> 16) & 0xFF;
  id = ioapic_read(REG_ID) >> 24;
  if(id != ioapic_id)
  10255b:	0f b6 0d 24 bb 10 00 	movzbl 0x10bb24,%ecx
  int i, id, maxintr;

  if(!ismp)
    return;

  ioapic = (volatile struct ioapic*)IOAPIC;
  102562:	c7 05 d4 ba 10 00 00 	movl   $0xfec00000,0x10bad4
  102569:	00 c0 fe 
  maxintr = (ioapic_read(REG_VER) >> 16) & 0xFF;
  10256c:	c1 ee 10             	shr    $0x10,%esi
  id = ioapic_read(REG_ID) >> 24;
  if(id != ioapic_id)
  10256f:	c1 ea 18             	shr    $0x18,%edx

  if(!ismp)
    return;

  ioapic = (volatile struct ioapic*)IOAPIC;
  maxintr = (ioapic_read(REG_VER) >> 16) & 0xFF;
  102572:	81 e6 ff 00 00 00    	and    $0xff,%esi
  id = ioapic_read(REG_ID) >> 24;
  if(id != ioapic_id)
  102578:	39 d1                	cmp    %edx,%ecx
  10257a:	74 11                	je     10258d <ioapic_init+0x6d>
    cprintf("ioapic_init: id isn't equal to ioapic_id; not a MP\n");
  10257c:	c7 04 24 94 6a 10 00 	movl   $0x106a94,(%esp)
  102583:	e8 38 e2 ff ff       	call   1007c0 <cprintf>
  102588:	a1 d4 ba 10 00       	mov    0x10bad4,%eax
  10258d:	b9 10 00 00 00       	mov    $0x10,%ecx
  102592:	31 d2                	xor    %edx,%edx
  102594:	8d 74 26 00          	lea    0x0(%esi,%eiz,1),%esi

  // Mark all interrupts edge-triggered, active high, disabled,
  // and not routed to any CPUs.
  for(i = 0; i <= maxintr; i++){
    ioapic_write(REG_TABLE+2*i, INT_DISABLED | (IRQ_OFFSET + i));
  102598:	8d 5a 20             	lea    0x20(%edx),%ebx
  if(id != ioapic_id)
    cprintf("ioapic_init: id isn't equal to ioapic_id; not a MP\n");

  // Mark all interrupts edge-triggered, active high, disabled,
  // and not routed to any CPUs.
  for(i = 0; i <= maxintr; i++){
  10259b:	83 c2 01             	add    $0x1,%edx
    ioapic_write(REG_TABLE+2*i, INT_DISABLED | (IRQ_OFFSET + i));
  10259e:	81 cb 00 00 01 00    	or     $0x10000,%ebx
}

static void
ioapic_write(int reg, uint data)
{
  ioapic->reg = reg;
  1025a4:	89 08                	mov    %ecx,(%eax)
  ioapic->data = data;
  1025a6:	89 58 10             	mov    %ebx,0x10(%eax)
  1025a9:	8d 59 01             	lea    0x1(%ecx),%ebx
  if(id != ioapic_id)
    cprintf("ioapic_init: id isn't equal to ioapic_id; not a MP\n");

  // Mark all interrupts edge-triggered, active high, disabled,
  // and not routed to any CPUs.
  for(i = 0; i <= maxintr; i++){
  1025ac:	83 c1 02             	add    $0x2,%ecx
  1025af:	39 d6                	cmp    %edx,%esi
}

static void
ioapic_write(int reg, uint data)
{
  ioapic->reg = reg;
  1025b1:	89 18                	mov    %ebx,(%eax)
  ioapic->data = data;
  1025b3:	c7 40 10 00 00 00 00 	movl   $0x0,0x10(%eax)
  if(id != ioapic_id)
    cprintf("ioapic_init: id isn't equal to ioapic_id; not a MP\n");

  // Mark all interrupts edge-triggered, active high, disabled,
  // and not routed to any CPUs.
  for(i = 0; i <= maxintr; i++){
  1025ba:	7d dc                	jge    102598 <ioapic_init+0x78>
    ioapic_write(REG_TABLE+2*i, INT_DISABLED | (IRQ_OFFSET + i));
    ioapic_write(REG_TABLE+2*i+1, 0);
  }
}
  1025bc:	83 c4 10             	add    $0x10,%esp
  1025bf:	5b                   	pop    %ebx
  1025c0:	5e                   	pop    %esi
  1025c1:	5d                   	pop    %ebp
  1025c2:	c3                   	ret    
  1025c3:	90                   	nop
  1025c4:	90                   	nop
  1025c5:	90                   	nop
  1025c6:	90                   	nop
  1025c7:	90                   	nop
  1025c8:	90                   	nop
  1025c9:	90                   	nop
  1025ca:	90                   	nop
  1025cb:	90                   	nop
  1025cc:	90                   	nop
  1025cd:	90                   	nop
  1025ce:	90                   	nop
  1025cf:	90                   	nop

001025d0 <kalloc>:
// Allocate n bytes of physical memory.
// Returns a kernel-segment pointer.
// Returns 0 if the memory cannot be allocated.
char*
kalloc(int n)
{
  1025d0:	55                   	push   %ebp
  1025d1:	89 e5                	mov    %esp,%ebp
  1025d3:	56                   	push   %esi
  1025d4:	53                   	push   %ebx
  1025d5:	83 ec 10             	sub    $0x10,%esp
  1025d8:	8b 75 08             	mov    0x8(%ebp),%esi
  char *p;
  struct run *r, **rp;

  if(n % PAGE || n <= 0)
  1025db:	f7 c6 ff 0f 00 00    	test   $0xfff,%esi
  1025e1:	74 0d                	je     1025f0 <kalloc+0x20>
    panic("kalloc");
  1025e3:	c7 04 24 c8 6a 10 00 	movl   $0x106ac8,(%esp)
  1025ea:	e8 71 e3 ff ff       	call   100960 <panic>
  1025ef:	90                   	nop
kalloc(int n)
{
  char *p;
  struct run *r, **rp;

  if(n % PAGE || n <= 0)
  1025f0:	85 f6                	test   %esi,%esi
  1025f2:	7e ef                	jle    1025e3 <kalloc+0x13>
    panic("kalloc");

  acquire(&kalloc_lock);
  1025f4:	c7 04 24 e0 ba 10 00 	movl   $0x10bae0,(%esp)
  1025fb:	e8 30 21 00 00       	call   104730 <acquire>
  102600:	8b 1d 14 bb 10 00    	mov    0x10bb14,%ebx
  for(rp=&freelist; (r=*rp) != 0; rp=&r->next){
  102606:	85 db                	test   %ebx,%ebx
  102608:	74 3e                	je     102648 <kalloc+0x78>
    if(r->len == n){
  10260a:	8b 43 04             	mov    0x4(%ebx),%eax
  10260d:	ba 14 bb 10 00       	mov    $0x10bb14,%edx
  102612:	39 f0                	cmp    %esi,%eax
  102614:	75 11                	jne    102627 <kalloc+0x57>
  102616:	eb 58                	jmp    102670 <kalloc+0xa0>

  if(n % PAGE || n <= 0)
    panic("kalloc");

  acquire(&kalloc_lock);
  for(rp=&freelist; (r=*rp) != 0; rp=&r->next){
  102618:	89 da                	mov    %ebx,%edx
  10261a:	8b 1b                	mov    (%ebx),%ebx
  10261c:	85 db                	test   %ebx,%ebx
  10261e:	74 28                	je     102648 <kalloc+0x78>
    if(r->len == n){
  102620:	8b 43 04             	mov    0x4(%ebx),%eax
  102623:	39 f0                	cmp    %esi,%eax
  102625:	74 49                	je     102670 <kalloc+0xa0>
      *rp = r->next;
      release(&kalloc_lock);
      return (char*)r;
    }
    if(r->len > n){
  102627:	39 c6                	cmp    %eax,%esi
  102629:	7d ed                	jge    102618 <kalloc+0x48>
      r->len -= n;
  10262b:	29 f0                	sub    %esi,%eax
  10262d:	89 43 04             	mov    %eax,0x4(%ebx)
      p = (char*)r + r->len;
  102630:	01 c3                	add    %eax,%ebx
      release(&kalloc_lock);
  102632:	c7 04 24 e0 ba 10 00 	movl   $0x10bae0,(%esp)
  102639:	e8 b2 20 00 00       	call   1046f0 <release>
  }
  release(&kalloc_lock);

  cprintf("kalloc: out of memory\n");
  return 0;
}
  10263e:	83 c4 10             	add    $0x10,%esp
  102641:	89 d8                	mov    %ebx,%eax
  102643:	5b                   	pop    %ebx
  102644:	5e                   	pop    %esi
  102645:	5d                   	pop    %ebp
  102646:	c3                   	ret    
  102647:	90                   	nop
      return p;
    }
  }
  release(&kalloc_lock);

  cprintf("kalloc: out of memory\n");
  102648:	31 db                	xor    %ebx,%ebx
      p = (char*)r + r->len;
      release(&kalloc_lock);
      return p;
    }
  }
  release(&kalloc_lock);
  10264a:	c7 04 24 e0 ba 10 00 	movl   $0x10bae0,(%esp)
  102651:	e8 9a 20 00 00       	call   1046f0 <release>

  cprintf("kalloc: out of memory\n");
  102656:	c7 04 24 cf 6a 10 00 	movl   $0x106acf,(%esp)
  10265d:	e8 5e e1 ff ff       	call   1007c0 <cprintf>
  return 0;
}
  102662:	83 c4 10             	add    $0x10,%esp
  102665:	89 d8                	mov    %ebx,%eax
  102667:	5b                   	pop    %ebx
  102668:	5e                   	pop    %esi
  102669:	5d                   	pop    %ebp
  10266a:	c3                   	ret    
  10266b:	90                   	nop
  10266c:	8d 74 26 00          	lea    0x0(%esi,%eiz,1),%esi
    panic("kalloc");

  acquire(&kalloc_lock);
  for(rp=&freelist; (r=*rp) != 0; rp=&r->next){
    if(r->len == n){
      *rp = r->next;
  102670:	8b 03                	mov    (%ebx),%eax
  102672:	89 02                	mov    %eax,(%edx)
      release(&kalloc_lock);
  102674:	c7 04 24 e0 ba 10 00 	movl   $0x10bae0,(%esp)
  10267b:	e8 70 20 00 00       	call   1046f0 <release>
  }
  release(&kalloc_lock);

  cprintf("kalloc: out of memory\n");
  return 0;
}
  102680:	83 c4 10             	add    $0x10,%esp
  102683:	89 d8                	mov    %ebx,%eax
  102685:	5b                   	pop    %ebx
  102686:	5e                   	pop    %esi
  102687:	5d                   	pop    %ebp
  102688:	c3                   	ret    
  102689:	8d b4 26 00 00 00 00 	lea    0x0(%esi,%eiz,1),%esi

00102690 <kfree>:
// which normally should have been returned by a
// call to kalloc(len).  (The exception is when
// initializing the allocator; see kinit above.)
void
kfree(char *v, int len)
{
  102690:	55                   	push   %ebp
  102691:	89 e5                	mov    %esp,%ebp
  102693:	57                   	push   %edi
  102694:	56                   	push   %esi
  102695:	53                   	push   %ebx
  102696:	83 ec 2c             	sub    $0x2c,%esp
  102699:	8b 45 0c             	mov    0xc(%ebp),%eax
  10269c:	8b 5d 08             	mov    0x8(%ebp),%ebx
  struct run *r, *rend, **rp, *p, *pend;

  if(len <= 0 || len % PAGE)
  10269f:	85 c0                	test   %eax,%eax
// which normally should have been returned by a
// call to kalloc(len).  (The exception is when
// initializing the allocator; see kinit above.)
void
kfree(char *v, int len)
{
  1026a1:	89 45 e4             	mov    %eax,-0x1c(%ebp)
  struct run *r, *rend, **rp, *p, *pend;

  if(len <= 0 || len % PAGE)
  1026a4:	0f 8e e9 00 00 00    	jle    102793 <kfree+0x103>
  1026aa:	a9 ff 0f 00 00       	test   $0xfff,%eax
  1026af:	0f 85 de 00 00 00    	jne    102793 <kfree+0x103>
    panic("kfree");

  // Fill with junk to catch dangling refs.
  memset(v, 1, len);
  1026b5:	8b 55 e4             	mov    -0x1c(%ebp),%edx
  1026b8:	c7 44 24 04 01 00 00 	movl   $0x1,0x4(%esp)
  1026bf:	00 
  1026c0:	89 1c 24             	mov    %ebx,(%esp)
  1026c3:	89 54 24 08          	mov    %edx,0x8(%esp)
  1026c7:	e8 d4 20 00 00       	call   1047a0 <memset>

  acquire(&kalloc_lock);
  1026cc:	c7 04 24 e0 ba 10 00 	movl   $0x10bae0,(%esp)
  1026d3:	e8 58 20 00 00       	call   104730 <acquire>
  p = (struct run*)v;
  1026d8:	a1 14 bb 10 00       	mov    0x10bb14,%eax
  pend = (struct run*)(v + len);
  for(rp=&freelist; (r=*rp) != 0 && r <= pend; rp=&r->next){
  1026dd:	85 c0                	test   %eax,%eax
  1026df:	74 61                	je     102742 <kfree+0xb2>
  // Fill with junk to catch dangling refs.
  memset(v, 1, len);

  acquire(&kalloc_lock);
  p = (struct run*)v;
  pend = (struct run*)(v + len);
  1026e1:	8b 55 e4             	mov    -0x1c(%ebp),%edx
  1026e4:	8d 0c 13             	lea    (%ebx,%edx,1),%ecx
  for(rp=&freelist; (r=*rp) != 0 && r <= pend; rp=&r->next){
  1026e7:	39 c1                	cmp    %eax,%ecx
  1026e9:	72 57                	jb     102742 <kfree+0xb2>
    rend = (struct run*)((char*)r + r->len);
  1026eb:	8b 70 04             	mov    0x4(%eax),%esi
  1026ee:	8d 14 30             	lea    (%eax,%esi,1),%edx
    if(r <= p && p < rend)
  1026f1:	39 d3                	cmp    %edx,%ebx
  1026f3:	72 73                	jb     102768 <kfree+0xd8>
      panic("freeing free page");
    if(pend == r){  // p next to r: replace r with p
  1026f5:	39 c1                	cmp    %eax,%ecx
  1026f7:	0f 84 8f 00 00 00    	je     10278c <kfree+0xfc>
  1026fd:	8d 76 00             	lea    0x0(%esi),%esi
      p->len = len + r->len;
      p->next = r->next;
      *rp = p;
      goto out;
    }
    if(rend == p){  // r next to p: replace p with r
  102700:	39 da                	cmp    %ebx,%edx
  102702:	74 6c                	je     102770 <kfree+0xe0>
  memset(v, 1, len);

  acquire(&kalloc_lock);
  p = (struct run*)v;
  pend = (struct run*)(v + len);
  for(rp=&freelist; (r=*rp) != 0 && r <= pend; rp=&r->next){
  102704:	89 c7                	mov    %eax,%edi
  102706:	8b 00                	mov    (%eax),%eax
  102708:	85 c0                	test   %eax,%eax
  10270a:	74 3c                	je     102748 <kfree+0xb8>
  10270c:	39 c1                	cmp    %eax,%ecx
  10270e:	72 38                	jb     102748 <kfree+0xb8>
    rend = (struct run*)((char*)r + r->len);
  102710:	8b 70 04             	mov    0x4(%eax),%esi
  102713:	8d 14 30             	lea    (%eax,%esi,1),%edx
    if(r <= p && p < rend)
  102716:	39 d3                	cmp    %edx,%ebx
  102718:	73 16                	jae    102730 <kfree+0xa0>
  10271a:	39 c3                	cmp    %eax,%ebx
  10271c:	72 12                	jb     102730 <kfree+0xa0>
      panic("freeing free page");
  10271e:	c7 04 24 ec 6a 10 00 	movl   $0x106aec,(%esp)
  102725:	e8 36 e2 ff ff       	call   100960 <panic>
  10272a:	8d b6 00 00 00 00    	lea    0x0(%esi),%esi
    if(pend == r){  // p next to r: replace r with p
  102730:	39 c1                	cmp    %eax,%ecx
  102732:	75 cc                	jne    102700 <kfree+0x70>
      p->len = len + r->len;
      p->next = r->next;
  102734:	8b 01                	mov    (%ecx),%eax
  for(rp=&freelist; (r=*rp) != 0 && r <= pend; rp=&r->next){
    rend = (struct run*)((char*)r + r->len);
    if(r <= p && p < rend)
      panic("freeing free page");
    if(pend == r){  // p next to r: replace r with p
      p->len = len + r->len;
  102736:	03 75 e4             	add    -0x1c(%ebp),%esi
      p->next = r->next;
  102739:	89 03                	mov    %eax,(%ebx)
  for(rp=&freelist; (r=*rp) != 0 && r <= pend; rp=&r->next){
    rend = (struct run*)((char*)r + r->len);
    if(r <= p && p < rend)
      panic("freeing free page");
    if(pend == r){  // p next to r: replace r with p
      p->len = len + r->len;
  10273b:	89 73 04             	mov    %esi,0x4(%ebx)
      p->next = r->next;
      *rp = p;
  10273e:	89 1f                	mov    %ebx,(%edi)
      goto out;
  102740:	eb 10                	jmp    102752 <kfree+0xc2>
  memset(v, 1, len);

  acquire(&kalloc_lock);
  p = (struct run*)v;
  pend = (struct run*)(v + len);
  for(rp=&freelist; (r=*rp) != 0 && r <= pend; rp=&r->next){
  102742:	bf 14 bb 10 00       	mov    $0x10bb14,%edi
  102747:	90                   	nop
      }
      goto out;
    }
  }
  // Insert p before r in list.
  p->len = len;
  102748:	8b 55 e4             	mov    -0x1c(%ebp),%edx
  p->next = r;
  10274b:	89 03                	mov    %eax,(%ebx)
  *rp = p;
  10274d:	89 1f                	mov    %ebx,(%edi)
      }
      goto out;
    }
  }
  // Insert p before r in list.
  p->len = len;
  10274f:	89 53 04             	mov    %edx,0x4(%ebx)
  p->next = r;
  *rp = p;

 out:
  release(&kalloc_lock);
  102752:	c7 45 08 e0 ba 10 00 	movl   $0x10bae0,0x8(%ebp)
}
  102759:	83 c4 2c             	add    $0x2c,%esp
  10275c:	5b                   	pop    %ebx
  10275d:	5e                   	pop    %esi
  10275e:	5f                   	pop    %edi
  10275f:	5d                   	pop    %ebp
  p->len = len;
  p->next = r;
  *rp = p;

 out:
  release(&kalloc_lock);
  102760:	e9 8b 1f 00 00       	jmp    1046f0 <release>
  102765:	8d 76 00             	lea    0x0(%esi),%esi
  acquire(&kalloc_lock);
  p = (struct run*)v;
  pend = (struct run*)(v + len);
  for(rp=&freelist; (r=*rp) != 0 && r <= pend; rp=&r->next){
    rend = (struct run*)((char*)r + r->len);
    if(r <= p && p < rend)
  102768:	39 c3                	cmp    %eax,%ebx
  10276a:	73 b2                	jae    10271e <kfree+0x8e>
  10276c:	eb 87                	jmp    1026f5 <kfree+0x65>
  10276e:	66 90                	xchg   %ax,%ax
      *rp = p;
      goto out;
    }
    if(rend == p){  // r next to p: replace p with r
      r->len += len;
      if(r->next && r->next == pend){  // r now next to r->next?
  102770:	8b 10                	mov    (%eax),%edx
      p->next = r->next;
      *rp = p;
      goto out;
    }
    if(rend == p){  // r next to p: replace p with r
      r->len += len;
  102772:	03 75 e4             	add    -0x1c(%ebp),%esi
      if(r->next && r->next == pend){  // r now next to r->next?
  102775:	85 d2                	test   %edx,%edx
      p->next = r->next;
      *rp = p;
      goto out;
    }
    if(rend == p){  // r next to p: replace p with r
      r->len += len;
  102777:	89 70 04             	mov    %esi,0x4(%eax)
      if(r->next && r->next == pend){  // r now next to r->next?
  10277a:	74 d6                	je     102752 <kfree+0xc2>
  10277c:	39 d1                	cmp    %edx,%ecx
  10277e:	75 d2                	jne    102752 <kfree+0xc2>
        r->len += r->next->len;
        r->next = r->next->next;
  102780:	8b 11                	mov    (%ecx),%edx
      goto out;
    }
    if(rend == p){  // r next to p: replace p with r
      r->len += len;
      if(r->next && r->next == pend){  // r now next to r->next?
        r->len += r->next->len;
  102782:	03 71 04             	add    0x4(%ecx),%esi
        r->next = r->next->next;
  102785:	89 10                	mov    %edx,(%eax)
      goto out;
    }
    if(rend == p){  // r next to p: replace p with r
      r->len += len;
      if(r->next && r->next == pend){  // r now next to r->next?
        r->len += r->next->len;
  102787:	89 70 04             	mov    %esi,0x4(%eax)
  10278a:	eb c6                	jmp    102752 <kfree+0xc2>
  pend = (struct run*)(v + len);
  for(rp=&freelist; (r=*rp) != 0 && r <= pend; rp=&r->next){
    rend = (struct run*)((char*)r + r->len);
    if(r <= p && p < rend)
      panic("freeing free page");
    if(pend == r){  // p next to r: replace r with p
  10278c:	bf 14 bb 10 00       	mov    $0x10bb14,%edi
  102791:	eb a1                	jmp    102734 <kfree+0xa4>
kfree(char *v, int len)
{
  struct run *r, *rend, **rp, *p, *pend;

  if(len <= 0 || len % PAGE)
    panic("kfree");
  102793:	c7 04 24 e6 6a 10 00 	movl   $0x106ae6,(%esp)
  10279a:	e8 c1 e1 ff ff       	call   100960 <panic>
  10279f:	90                   	nop

001027a0 <kinit>:
// This code cheats by just considering one megabyte of
// pages after _end.  Real systems would determine the
// amount of memory available in the system and use it all.
void
kinit(void)
{
  1027a0:	55                   	push   %ebp
  1027a1:	89 e5                	mov    %esp,%ebp
  1027a3:	83 ec 18             	sub    $0x18,%esp
  extern int end;
  uint mem;
  char *start;

  initlock(&kalloc_lock, "kalloc");
  1027a6:	c7 44 24 04 c8 6a 10 	movl   $0x106ac8,0x4(%esp)
  1027ad:	00 
  1027ae:	c7 04 24 e0 ba 10 00 	movl   $0x10bae0,(%esp)
  1027b5:	e8 b6 1d 00 00       	call   104570 <initlock>
  start = (char*) &end;
  start = (char*) (((uint)start + PAGE) & ~(PAGE-1));
  mem = 256; // assume computer has 256 pages of RAM
  cprintf("mem = %d\n", mem * PAGE);
  1027ba:	c7 44 24 04 00 00 10 	movl   $0x100000,0x4(%esp)
  1027c1:	00 
  1027c2:	c7 04 24 fe 6a 10 00 	movl   $0x106afe,(%esp)
  1027c9:	e8 f2 df ff ff       	call   1007c0 <cprintf>
  kfree(start, mem * PAGE);
  1027ce:	b8 44 01 11 00       	mov    $0x110144,%eax
  1027d3:	25 00 f0 ff ff       	and    $0xfffff000,%eax
  1027d8:	c7 44 24 04 00 00 10 	movl   $0x100000,0x4(%esp)
  1027df:	00 
  1027e0:	89 04 24             	mov    %eax,(%esp)
  1027e3:	e8 a8 fe ff ff       	call   102690 <kfree>
}
  1027e8:	c9                   	leave  
  1027e9:	c3                   	ret    
  1027ea:	90                   	nop
  1027eb:	90                   	nop
  1027ec:	90                   	nop
  1027ed:	90                   	nop
  1027ee:	90                   	nop
  1027ef:	90                   	nop

001027f0 <kbd_getc>:
#include "defs.h"
#include "kbd.h"

int
kbd_getc(void)
{
  1027f0:	55                   	push   %ebp
static inline uchar
inb(ushort port)
{
  uchar data;

  asm volatile("in %1,%0" : "=a" (data) : "d" (port));
  1027f1:	ba 64 00 00 00       	mov    $0x64,%edx
  1027f6:	89 e5                	mov    %esp,%ebp
  1027f8:	ec                   	in     (%dx),%al
  1027f9:	89 c2                	mov    %eax,%edx
    normalmap, shiftmap, ctlmap, ctlmap
  };
  uint st, data, c;

  st = inb(KBSTATP);
  if((st & KBS_DIB) == 0)
  1027fb:	b8 ff ff ff ff       	mov    $0xffffffff,%eax
  102800:	83 e2 01             	and    $0x1,%edx
  102803:	74 3e                	je     102843 <kbd_getc+0x53>
  102805:	ba 60 00 00 00       	mov    $0x60,%edx
  10280a:	ec                   	in     (%dx),%al
    return -1;
  data = inb(KBDATAP);
  10280b:	0f b6 c0             	movzbl %al,%eax

  if(data == 0xE0){
  10280e:	3d e0 00 00 00       	cmp    $0xe0,%eax
  102813:	0f 84 7f 00 00 00    	je     102898 <kbd_getc+0xa8>
    shift |= E0ESC;
    return 0;
  } else if(data & 0x80){
  102819:	84 c0                	test   %al,%al
  10281b:	79 2b                	jns    102848 <kbd_getc+0x58>
    // Key released
    data = (shift & E0ESC ? data : data & 0x7F);
  10281d:	8b 15 bc 88 10 00    	mov    0x1088bc,%edx
  102823:	f6 c2 40             	test   $0x40,%dl
  102826:	75 03                	jne    10282b <kbd_getc+0x3b>
  102828:	83 e0 7f             	and    $0x7f,%eax
    shift &= ~(shiftcode[data] | E0ESC);
  10282b:	0f b6 80 20 6b 10 00 	movzbl 0x106b20(%eax),%eax
  102832:	83 c8 40             	or     $0x40,%eax
  102835:	0f b6 c0             	movzbl %al,%eax
  102838:	f7 d0                	not    %eax
  10283a:	21 d0                	and    %edx,%eax
  10283c:	a3 bc 88 10 00       	mov    %eax,0x1088bc
  102841:	31 c0                	xor    %eax,%eax
      c += 'A' - 'a';
    else if('A' <= c && c <= 'Z')
      c += 'a' - 'A';
  }
  return c;
}
  102843:	5d                   	pop    %ebp
  102844:	c3                   	ret    
  102845:	8d 76 00             	lea    0x0(%esi),%esi
  } else if(data & 0x80){
    // Key released
    data = (shift & E0ESC ? data : data & 0x7F);
    shift &= ~(shiftcode[data] | E0ESC);
    return 0;
  } else if(shift & E0ESC){
  102848:	8b 0d bc 88 10 00    	mov    0x1088bc,%ecx
  10284e:	f6 c1 40             	test   $0x40,%cl
  102851:	74 05                	je     102858 <kbd_getc+0x68>
    // Last character was an E0 escape; or with 0x80
    data |= 0x80;
  102853:	0c 80                	or     $0x80,%al
    shift &= ~E0ESC;
  102855:	83 e1 bf             	and    $0xffffffbf,%ecx
  }

  shift |= shiftcode[data];
  shift ^= togglecode[data];
  102858:	0f b6 90 20 6b 10 00 	movzbl 0x106b20(%eax),%edx
  10285f:	09 ca                	or     %ecx,%edx
  102861:	0f b6 88 20 6c 10 00 	movzbl 0x106c20(%eax),%ecx
  102868:	31 ca                	xor    %ecx,%edx
  c = charcode[shift & (CTL | SHIFT)][data];
  10286a:	89 d1                	mov    %edx,%ecx
  10286c:	83 e1 03             	and    $0x3,%ecx
  10286f:	8b 0c 8d 20 6d 10 00 	mov    0x106d20(,%ecx,4),%ecx
    data |= 0x80;
    shift &= ~E0ESC;
  }

  shift |= shiftcode[data];
  shift ^= togglecode[data];
  102876:	89 15 bc 88 10 00    	mov    %edx,0x1088bc
  c = charcode[shift & (CTL | SHIFT)][data];
  if(shift & CAPSLOCK){
  10287c:	83 e2 08             	and    $0x8,%edx
    shift &= ~E0ESC;
  }

  shift |= shiftcode[data];
  shift ^= togglecode[data];
  c = charcode[shift & (CTL | SHIFT)][data];
  10287f:	0f b6 04 01          	movzbl (%ecx,%eax,1),%eax
  if(shift & CAPSLOCK){
  102883:	74 be                	je     102843 <kbd_getc+0x53>
    if('a' <= c && c <= 'z')
  102885:	8d 50 9f             	lea    -0x61(%eax),%edx
  102888:	83 fa 19             	cmp    $0x19,%edx
  10288b:	77 1b                	ja     1028a8 <kbd_getc+0xb8>
      c += 'A' - 'a';
  10288d:	83 e8 20             	sub    $0x20,%eax
    else if('A' <= c && c <= 'Z')
      c += 'a' - 'A';
  }
  return c;
}
  102890:	5d                   	pop    %ebp
  102891:	c3                   	ret    
  102892:	8d b6 00 00 00 00    	lea    0x0(%esi),%esi
  if((st & KBS_DIB) == 0)
    return -1;
  data = inb(KBDATAP);

  if(data == 0xE0){
    shift |= E0ESC;
  102898:	30 c0                	xor    %al,%al
  10289a:	83 0d bc 88 10 00 40 	orl    $0x40,0x1088bc
      c += 'A' - 'a';
    else if('A' <= c && c <= 'Z')
      c += 'a' - 'A';
  }
  return c;
}
  1028a1:	5d                   	pop    %ebp
  1028a2:	c3                   	ret    
  1028a3:	90                   	nop
  1028a4:	8d 74 26 00          	lea    0x0(%esi,%eiz,1),%esi
  shift ^= togglecode[data];
  c = charcode[shift & (CTL | SHIFT)][data];
  if(shift & CAPSLOCK){
    if('a' <= c && c <= 'z')
      c += 'A' - 'a';
    else if('A' <= c && c <= 'Z')
  1028a8:	8d 50 bf             	lea    -0x41(%eax),%edx
  1028ab:	83 fa 19             	cmp    $0x19,%edx
  1028ae:	77 93                	ja     102843 <kbd_getc+0x53>
      c += 'a' - 'A';
  1028b0:	83 c0 20             	add    $0x20,%eax
  }
  return c;
}
  1028b3:	5d                   	pop    %ebp
  1028b4:	c3                   	ret    
  1028b5:	8d 74 26 00          	lea    0x0(%esi,%eiz,1),%esi
  1028b9:	8d bc 27 00 00 00 00 	lea    0x0(%edi,%eiz,1),%edi

001028c0 <kbd_intr>:

void
kbd_intr(void)
{
  1028c0:	55                   	push   %ebp
  1028c1:	89 e5                	mov    %esp,%ebp
  1028c3:	83 ec 18             	sub    $0x18,%esp
  console_intr(kbd_getc);
  1028c6:	c7 04 24 f0 27 10 00 	movl   $0x1027f0,(%esp)
  1028cd:	e8 9e dc ff ff       	call   100570 <console_intr>
}
  1028d2:	c9                   	leave  
  1028d3:	c3                   	ret    
  1028d4:	90                   	nop
  1028d5:	90                   	nop
  1028d6:	90                   	nop
  1028d7:	90                   	nop
  1028d8:	90                   	nop
  1028d9:	90                   	nop
  1028da:	90                   	nop
  1028db:	90                   	nop
  1028dc:	90                   	nop
  1028dd:	90                   	nop
  1028de:	90                   	nop
  1028df:	90                   	nop

001028e0 <lapic_init>:
}

void
lapic_init(int c)
{
  if(!lapic) 
  1028e0:	a1 18 bb 10 00       	mov    0x10bb18,%eax
  lapic[ID];  // wait for write to finish, by reading
}

void
lapic_init(int c)
{
  1028e5:	55                   	push   %ebp
  1028e6:	89 e5                	mov    %esp,%ebp
  if(!lapic) 
  1028e8:	85 c0                	test   %eax,%eax
  1028ea:	0f 84 c4 00 00 00    	je     1029b4 <lapic_init+0xd4>
volatile uint *lapic;  // Initialized in mp.c

static void
lapicw(int index, int value)
{
  lapic[index] = value;
  1028f0:	c7 80 f0 00 00 00 3f 	movl   $0x13f,0xf0(%eax)
  1028f7:	01 00 00 
  lapic[ID];  // wait for write to finish, by reading
  1028fa:	8b 50 20             	mov    0x20(%eax),%edx
volatile uint *lapic;  // Initialized in mp.c

static void
lapicw(int index, int value)
{
  lapic[index] = value;
  1028fd:	c7 80 e0 03 00 00 0b 	movl   $0xb,0x3e0(%eax)
